(dp1
S'output'
p2
S'<class \'sqlite3.OperationalError\'> table "ecu_db" already exists'
p3
sS'layer'
p4
S'/Users/ecain/Projects/SOTA/web2py/applications/SOTA/models/db.py'
p5
sS'code'
p6
S'<code object <module> at 0x10b360db0, file "/Users/ecain/Projects/SOTA/web2py/applications/SOTA/models/db.py", line 8>'
p7
sS'snapshot'
p8
(dp9
S'exception'
p10
(dp11
S'__module__'
p12
S"'sqlite3'"
p13
sS'__getslice__'
p14
S"<method-wrapper '__getslice__' of OperationalError object>"
p15
sS'__str__'
p16
S"<method-wrapper '__str__' of OperationalError object>"
p17
sS'__reduce__'
p18
S'<built-in method __reduce__ of OperationalError object>'
p19
sS'__dict__'
p20
S'{}'
p21
sS'__sizeof__'
p22
S'<built-in method __sizeof__ of OperationalError object>'
p23
sS'__weakref__'
p24
S'None'
p25
sS'message'
p26
S'\'table "ecu_db" already exists\''
p27
sS'__init__'
p28
S"<method-wrapper '__init__' of OperationalError object>"
p29
sS'__setattr__'
p30
S"<method-wrapper '__setattr__' of OperationalError object>"
p31
sS'__reduce_ex__'
p32
S'<built-in method __reduce_ex__ of OperationalError object>'
p33
sS'__new__'
p34
S'<built-in method __new__ of type object>'
p35
sS'__format__'
p36
S'<built-in method __format__ of OperationalError object>'
p37
sS'__class__'
p38
S"<class 'sqlite3.OperationalError'>"
p39
sS'__doc__'
p40
S'None'
p41
sS'__getitem__'
p42
S"<method-wrapper '__getitem__' of OperationalError object>"
p43
sS'__setstate__'
p44
S'<built-in method __setstate__ of OperationalError object>'
p45
sS'__getattribute__'
p46
S"<method-wrapper '__getattribute__' of OperationalError object>"
p47
sS'args'
p48
S'(\'table "ecu_db" already exists\',)'
p49
sS'__subclasshook__'
p50
S'<built-in method __subclasshook__ of type object>'
p51
sS'__unicode__'
p52
S'<built-in method __unicode__ of OperationalError object>'
p53
sS'__delattr__'
p54
S"<method-wrapper '__delattr__' of OperationalError object>"
p55
sS'__repr__'
p56
S"<method-wrapper '__repr__' of OperationalError object>"
p57
sS'__hash__'
p58
S"<method-wrapper '__hash__' of OperationalError object>"
p59
ssS'evalue'
p60
S'table "ecu_db" already exists'
p61
sS'request'
p62
cgluon.html
XML_unpickle
p63
(S's\td\x00\x00<div><table><tr><td style="font-weight:bold;vertical-align:top;">ajax</td><td style="vertical-align:top;">:</td><td><div>False</div></td></tr><tr><td style="font-weight:bold;vertical-align:top;">application</td><td style="vertical-align:top;">:</td><td><div>SOTA</div></td></tr><tr><td style="font-weight:bold;vertical-align:top;">args</td><td style="vertical-align:top;">:</td><td><div><table></table></div></td></tr><tr><td style="font-weight:bold;vertical-align:top;">cid</td><td style="vertical-align:top;">:</td><td><div>None</div></td></tr><tr><td style="font-weight:bold;vertical-align:top;">client</td><td style="vertical-align:top;">:</td><td><div>127.0.0.1</div></td></tr><tr><td style="font-weight:bold;vertical-align:top;">controller</td><td style="vertical-align:top;">:</td><td><div>default</div></td></tr><tr><td style="font-weight:bold;vertical-align:top;">cookies</td><td style="vertical-align:top;">:</td><td><div><table><tr><td style="font-weight:bold;vertical-align:top;">csrftoken</td><td style="vertical-align:top;">:</td><td><div>1IDx8BTnyy9FCtyjuOYxlnc3y9TqicAU<table><tr><td style="font-weight:bold;vertical-align:top;">comment</td><td style="vertical-align:top;">:</td><td><div></div></td></tr><tr><td style="font-weight:bold;vertical-align:top;">domain</td><td style="vertical-align:top;">:</td><td><div></div></td></tr><tr><td style="font-weight:bold;vertical-align:top;">expires</td><td style="vertical-align:top;">:</td><td><div></div></td></tr><tr><td style="font-weight:bold;vertical-align:top;">httponly</td><td style="vertical-align:top;">:</td><td><div></div></td></tr><tr><td style="font-weight:bold;vertical-align:top;">max-age</td><td style="vertical-align:top;">:</td><td><div></div></td></tr><tr><td style="font-weight:bold;vertical-align:top;">path</td><td style="vertical-align:top;">:</td><td><div></div></td></tr><tr><td style="font-weight:bold;vertical-align:top;">secure</td><td style="vertical-align:top;">:</td><td><div></div></td></tr><tr><td style="font-weight:bold;vertical-align:top;">version</td><td style="vertical-align:top;">:</td><td><div></div></td></tr></table></div></td></tr><tr><td style="font-weight:bold;vertical-align:top;">session_id_admin</td><td style="vertical-align:top;">:</td><td><div>127.0.0.1-c4c8ced8-3841-4b52-a2f6-3b3f51bae063<table><tr><td style="font-weight:bold;vertical-align:top;">comment</td><td style="vertical-align:top;">:</td><td><div></div></td></tr><tr><td style="font-weight:bold;vertical-align:top;">domain</td><td style="vertical-align:top;">:</td><td><div></div></td></tr><tr><td style="font-weight:bold;vertical-align:top;">expires</td><td style="vertical-align:top;">:</td><td><div></div></td></tr><tr><td style="font-weight:bold;vertical-align:top;">httponly</td><td style="vertical-align:top;">:</td><td><div></div></td></tr><tr><td style="font-weight:bold;vertical-align:top;">max-age</td><td style="vertical-align:top;">:</td><td><div></div></td></tr><tr><td style="font-weight:bold;vertical-align:top;">path</td><td style="vertical-align:top;">:</td><td><div></div></td></tr><tr><td style="font-weight:bold;vertical-align:top;">secure</td><td style="vertical-align:top;">:</td><td><div></div></td></tr><tr><td style="font-weight:bold;vertical-align:top;">version</td><td style="vertical-align:top;">:</td><td><div></div></td></tr></table></div></td></tr><tr><td style="font-weight:bold;vertical-align:top;">session_id_sota</td><td style="vertical-align:top;">:</td><td><div>127.0.0.1-d9bbd377-982e-4472-9ec3-cedb9481f9cf<table><tr><td style="font-weight:bold;vertical-align:top;">comment</td><td style="vertical-align:top;">:</td><td><div></div></td></tr><tr><td style="font-weight:bold;vertical-align:top;">domain</td><td style="vertical-align:top;">:</td><td><div></div></td></tr><tr><td style="font-weight:bold;vertical-align:top;">expires</td><td style="vertical-align:top;">:</td><td><div></div></td></tr><tr><td style="font-weight:bold;vertical-align:top;">httponly</td><td style="vertical-align:top;">:</td><td><div></div></td></tr><tr><td style="font-weight:bold;vertical-align:top;">max-age</td><td style="vertical-align:top;">:</td><td><div></div></td></tr><tr><td style="font-weight:bold;vertical-align:top;">path</td><td style="vertical-align:top;">:</td><td><div></div></td></tr><tr><td style="font-weight:bold;vertical-align:top;">secure</td><td style="vertical-align:top;">:</td><td><div></div></td></tr><tr><td style="font-weight:bold;vertical-align:top;">version</td><td style="vertical-align:top;">:</td><td><div></div></td></tr></table></div></td></tr><tr><td style="font-weight:bold;vertical-align:top;">session_id_welcome</td><td style="vertical-align:top;">:</td><td><div>127.0.0.1-7af1d569-a9c2-4bce-b2c4-85a0d30c1917<table><tr><td style="font-weight:bold;vertical-align:top;">comment</td><td style="vertical-align:top;">:</td><td><div></div></td></tr><tr><td style="font-weight:bold;vertical-align:top;">domain</td><td style="vertical-align:top;">:</td><td><div></div></td></tr><tr><td style="font-weight:bold;vertical-align:top;">expires</td><td style="vertical-align:top;">:</td><td><div></div></td></tr><tr><td style="font-weight:bold;vertical-align:top;">httponly</td><td style="vertical-align:top;">:</td><td><div></div></td></tr><tr><td style="font-weight:bold;vertical-align:top;">max-age</td><td style="vertical-align:top;">:</td><td><div></div></td></tr><tr><td style="font-weight:bold;vertical-align:top;">path</td><td style="vertical-align:top;">:</td><td><div></div></td></tr><tr><td style="font-weight:bold;vertical-align:top;">secure</td><td style="vertical-align:top;">:</td><td><div></div></td></tr><tr><td style="font-weight:bold;vertical-align:top;">version</td><td style="vertical-align:top;">:</td><td><div></div></td></tr></table></div></td></tr></table></div></td></tr><tr><td style="font-weight:bold;vertical-align:top;">env</td><td style="vertical-align:top;">:</td><td><div><table><tr><td style="font-weight:bold;vertical-align:top;">HTTPS</td><td style="vertical-align:top;">:</td><td><div>on</div></td></tr><tr><td style="font-weight:bold;vertical-align:top;">HTTP_ACCEPT</td><td style="vertical-align:top;">:</td><td><div>text/html,application/xhtml+xml,application/xml;q=0.9,*/*;q=0.8</div></td></tr><tr><td style="font-weight:bold;vertical-align:top;">HTTP_ACCEPT_ENCODING</td><td style="vertical-align:top;">:</td><td><div>gzip, deflate, br</div></td></tr><tr><td style="font-weight:bold;vertical-align:top;">HTTP_ACCEPT_LANGUAGE</td><td style="vertical-align:top;">:</td><td><div>en-US,en;q=0.5</div></td></tr><tr><td style="font-weight:bold;vertical-align:top;">HTTP_CACHE_CONTROL</td><td style="vertical-align:top;">:</td><td><div>max-age=0</div></td></tr><tr><td style="font-weight:bold;vertical-align:top;">HTTP_CONNECTION</td><td style="vertical-align:top;">:</td><td><div>keep-alive</div></td></tr><tr><td style="font-weight:bold;vertical-align:top;">HTTP_COOKIE</td><td style="vertical-align:top;">:</td><td><div>csrftoken=1IDx8BTnyy9FCtyjuOYxlnc3y9TqicAU; session_id_welcome=127.0.0.1-7af1d569-a9c2-4bce-b2c4-85a0d30c1917; session_id_admin=127.0.0.1-c4c8ced8-3841-4b52-a2f6-3b3f51bae063; session_id_sota=127.0.0.1-d9bbd377-982e-4472-9ec3-cedb9481f9cf</div></td></tr><tr><td style="font-weight:bold;vertical-align:top;">HTTP_HOST</td><td style="vertical-align:top;">:</td><td><div>127.0.0.1:8000</div></td></tr><tr><td style="font-weight:bold;vertical-align:top;">HTTP_REFERER</td><td style="vertical-align:top;">:</td><td><div>https://127.0.0.1:8000/SOTA/default/user/login?_next=/SOTA/default/index</div></td></tr><tr><td style="font-weight:bold;vertical-align:top;">HTTP_UPGRADE_INSECURE_REQUESTS</td><td style="vertical-align:top;">:</td><td><div>1</div></td></tr><tr><td style="font-weight:bold;vertical-align:top;">HTTP_USER_AGENT</td><td style="vertical-align:top;">:</td><td><div>Mozilla/5.0 (Macintosh; Intel Mac OS X 10.10; rv:50.0) Gecko/20100101 Firefox/50.0</div></td></tr><tr><td style="font-weight:bold;vertical-align:top;">PATH_INFO</td><td style="vertical-align:top;">:</td><td><div>/SOTA/default/index</div></td></tr><tr><td style="font-weight:bold;vertical-align:top;">QUERY_STRING</td><td style="vertical-align:top;">:</td><td><div></div></td></tr><tr><td style="font-weight:bold;vertical-align:top;">REMOTE_ADDR</td><td style="vertical-align:top;">:</td><td><div>127.0.0.1</div></td></tr><tr><td style="font-weight:bold;vertical-align:top;">REMOTE_PORT</td><td style="vertical-align:top;">:</td><td><div>51190</div></td></tr><tr><td style="font-weight:bold;vertical-align:top;">REQUEST_METHOD</td><td style="vertical-align:top;">:</td><td><div>GET</div></td></tr><tr><td style="font-weight:bold;vertical-align:top;">SCRIPT_NAME</td><td style="vertical-align:top;">:</td><td><div></div></td></tr><tr><td style="font-weight:bold;vertical-align:top;">SERVER_NAME</td><td style="vertical-align:top;">:</td><td><div>eacain</div></td></tr><tr><td style="font-weight:bold;vertical-align:top;">SERVER_PORT</td><td style="vertical-align:top;">:</td><td><div>8000</div></td></tr><tr><td style="font-weight:bold;vertical-align:top;">SERVER_PROTOCOL</td><td style="vertical-align:top;">:</td><td><div>HTTP/1.1</div></td></tr><tr><td style="font-weight:bold;vertical-align:top;">SERVER_SOFTWARE</td><td style="vertical-align:top;">:</td><td><div>Rocket 1.2.6</div></td></tr><tr><td style="font-weight:bold;vertical-align:top;">SSL_CLIENT_RAW_CERT</td><td style="vertical-align:top;">:</td><td><div>None</div></td></tr><tr><td style="font-weight:bold;vertical-align:top;">app_folders</td><td style="vertical-align:top;">:</td><td><div>set([&#x27;/Users/ecain/Projects/SOTA/web2py/applications/SOTA/&#x27;, &#x27;/Users/ecain/Projects/SOTA/web2py/applications/admin/&#x27;])</div></td></tr><tr><td style="font-weight:bold;vertical-align:top;">applications_parent</td><td style="vertical-align:top;">:</td><td><div>/Users/ecain/Projects/SOTA/web2py</div></td></tr><tr><td style="font-weight:bold;vertical-align:top;">cmd_args</td><td style="vertical-align:top;">:</td><td><div><table></table></div></td></tr><tr><td style="font-weight:bold;vertical-align:top;">cmd_options</td><td style="vertical-align:top;">:</td><td><div>&lt;Values at 0x1068bf248: {&#x27;verbose&#x27;: False, &#x27;ip&#x27;: &#x27;0.0.0.0&#x27;, &#x27;debuglevel&#x27;: 30, &#x27;with_scheduler&#x27;: False, &#x27;shutdown_timeout&#x27;: 5, &#x27;taskbar&#x27;: False, &#x27;with_coverage&#x27;: False, &#x27;pid_filename&#x27;: &#x27;httpserver.pid&#x27;, &#x27;maxthreads&#x27;: None, &#x27;softcron&#x27;: False, &#x27;server_name&#x27;: &#x27;eacain&#x27;, &#x27;bpython&#x27;: False, &#x27;nogui&#x27;: False, &#x27;port&#x27;: 8000, &#x27;print_errors&#x27;: False, &#x27;extcron&#x27;: False, &#x27;runcron&#x27;: False, &#x27;run_system_tests&#x27;: False, &#x27;test&#x27;: None, &#x27;folder&#x27;: &#x27;/Users/ecain/Projects/SOTA/web2py&#x27;, &#x27;config&#x27;: &#x27;&#x27;, &#x27;minthreads&#x27;: None, &#x27;shell&#x27;: None, &#x27;run&#x27;: &#x27;&#x27;, &#x27;log_filename&#x27;: &#x27;httpserver.log&#x27;, &#x27;profiler_dir&#x27;: None, &#x27;args&#x27;: [&#x27;&#x27;], &#x27;socket_timeout&#x27;: 5, &#x27;ssl_ca_certificate&#x27;: None, &#x27;scheduler&#x27;: None, &#x27;interfaces&#x27;: None, &#x27;ssl_private_key&#x27;: &#x27;server.key&#x27;, &#x27;gae&#x27;: None, &#x27;password&#x27;: &#x27;******&#x27;, &#x27;request_queue_size&#x27;: 5, &#x27;ssl_certificate&#x27;: &#x27;server.crt&#x27;, &#x27;cronjob&#x27;: False, &#x27;numthreads&#x27;: None, &#x27;quiet&#x27;: False, &#x27;import_models&#x27;: False, &#x27;timeout&#x27;: 10, &#x27;plain&#x27;: False, &#x27;nobanner&#x27;: False}&gt;</div></td></tr><tr><td style="font-weight:bold;vertical-align:top;">db_sessions</td><td style="vertical-align:top;">:</td><td><div>set([])</div></td></tr><tr><td style="font-weight:bold;vertical-align:top;">debugging</td><td style="vertical-align:top;">:</td><td><div>False</div></td></tr><tr><td style="font-weight:bold;vertical-align:top;">gluon_parent</td><td style="vertical-align:top;">:</td><td><div>/Users/ecain/Projects/SOTA/web2py</div></td></tr><tr><td style="font-weight:bold;vertical-align:top;">http_accept</td><td style="vertical-align:top;">:</td><td><div>text/html,application/xhtml+xml,application/xml;q=0.9,*/*;q=0.8</div></td></tr><tr><td style="font-weight:bold;vertical-align:top;">http_accept_encoding</td><td style="vertical-align:top;">:</td><td><div>gzip, deflate, br</div></td></tr><tr><td style="font-weight:bold;vertical-align:top;">http_accept_language</td><td style="vertical-align:top;">:</td><td><div>en-US,en;q=0.5</div></td></tr><tr><td style="font-weight:bold;vertical-align:top;">http_cache_control</td><td style="vertical-align:top;">:</td><td><div>max-age=0</div></td></tr><tr><td style="font-weight:bold;vertical-align:top;">http_connection</td><td style="vertical-align:top;">:</td><td><div>keep-alive</div></td></tr><tr><td style="font-weight:bold;vertical-align:top;">http_cookie</td><td style="vertical-align:top;">:</td><td><div>csrftoken=1IDx8BTnyy9FCtyjuOYxlnc3y9TqicAU; session_id_welcome=127.0.0.1-7af1d569-a9c2-4bce-b2c4-85a0d30c1917; session_id_admin=127.0.0.1-c4c8ced8-3841-4b52-a2f6-3b3f51bae063; session_id_sota=127.0.0.1-d9bbd377-982e-4472-9ec3-cedb9481f9cf</div></td></tr><tr><td style="font-weight:bold;vertical-align:top;">http_host</td><td style="vertical-align:top;">:</td><td><div>127.0.0.1:8000</div></td></tr><tr><td style="font-weight:bold;vertical-align:top;">http_referer</td><td style="vertical-align:top;">:</td><td><div>https://127.0.0.1:8000/SOTA/default/user/login?_next=/SOTA/default/index</div></td></tr><tr><td style="font-weight:bold;vertical-align:top;">http_upgrade_insecure_requests</td><td style="vertical-align:top;">:</td><td><div>1</div></td></tr><tr><td style="font-weight:bold;vertical-align:top;">http_user_agent</td><td style="vertical-align:top;">:</td><td><div>Mozilla/5.0 (Macintosh; Intel Mac OS X 10.10; rv:50.0) Gecko/20100101 Firefox/50.0</div></td></tr><tr><td style="font-weight:bold;vertical-align:top;">https</td><td style="vertical-align:top;">:</td><td><div>on</div></td></tr><tr><td style="font-weight:bold;vertical-align:top;">is_jython</td><td style="vertical-align:top;">:</td><td><div>False</div></td></tr><tr><td style="font-weight:bold;vertical-align:top;">is_py2</td><td style="vertical-align:top;">:</td><td><div>True</div></td></tr><tr><td style="font-weight:bold;vertical-align:top;">is_pypy</td><td style="vertical-align:top;">:</td><td><div>False</div></td></tr><tr><td style="font-weight:bold;vertical-align:top;">is_source</td><td style="vertical-align:top;">:</td><td><div>True</div></td></tr><tr><td style="font-weight:bold;vertical-align:top;">local_hosts</td><td style="vertical-align:top;">:</td><td><div><table><tr><td><div>::1</div></td></tr><tr><td><div>::ffff:127.0.0.1</div></td></tr><tr><td><div>127.0.0.1</div></td></tr><tr><td><div>eacain</div></td></tr></table></div></td></tr><tr><td style="font-weight:bold;vertical-align:top;">path_info</td><td style="vertical-align:top;">:</td><td><div>/SOTA/default/index</div></td></tr><tr><td style="font-weight:bold;vertical-align:top;">query_string</td><td style="vertical-align:top;">:</td><td><div></div></td></tr><tr><td style="font-weight:bold;vertical-align:top;">remote_addr</td><td style="vertical-align:top;">:</td><td><div>127.0.0.1</div></td></tr><tr><td style="font-weight:bold;vertical-align:top;">remote_port</td><td style="vertical-align:top;">:</td><td><div>51190</div></td></tr><tr><td style="font-weight:bold;vertical-align:top;">request_method</td><td style="vertical-align:top;">:</td><td><div>GET</div></td></tr><tr><td style="font-weight:bold;vertical-align:top;">request_uri</td><td style="vertical-align:top;">:</td><td><div>/SOTA/default/index</div></td></tr><tr><td style="font-weight:bold;vertical-align:top;">script_name</td><td style="vertical-align:top;">:</td><td><div></div></td></tr><tr><td style="font-weight:bold;vertical-align:top;">server_name</td><td style="vertical-align:top;">:</td><td><div>eacain</div></td></tr><tr><td style="font-weight:bold;vertical-align:top;">server_port</td><td style="vertical-align:top;">:</td><td><div>8000</div></td></tr><tr><td style="font-weight:bold;vertical-align:top;">server_protocol</td><td style="vertical-align:top;">:</td><td><div>HTTP/1.1</div></td></tr><tr><td style="font-weight:bold;vertical-align:top;">server_software</td><td style="vertical-align:top;">:</td><td><div>Rocket 1.2.6</div></td></tr><tr><td style="font-weight:bold;vertical-align:top;">ssl_client_raw_cert</td><td style="vertical-align:top;">:</td><td><div>None</div></td></tr><tr><td style="font-weight:bold;vertical-align:top;">web2py_path</td><td style="vertical-align:top;">:</td><td><div>/Users/ecain/Projects/SOTA/web2py</div></td></tr><tr><td style="font-weight:bold;vertical-align:top;">web2py_version</td><td style="vertical-align:top;">:</td><td><div>2.14.6-stable+timestamp.2016.05.09.19.18.48</div></td></tr><tr><td style="font-weight:bold;vertical-align:top;">wsgi.errors</td><td style="vertical-align:top;">:</td><td><div>&lt;open file &#x27;&lt;stderr&gt;&#x27;, mode &#x27;w&#x27; at 0x10586a1e0&gt;</div></td></tr><tr><td style="font-weight:bold;vertical-align:top;">wsgi.file_wrapper</td><td style="vertical-align:top;">:</td><td><div>&lt;class wsgiref.util.FileWrapper at 0x10686b808&gt;</div></td></tr><tr><td style="font-weight:bold;vertical-align:top;">wsgi.input</td><td style="vertical-align:top;">:</td><td><div>&lt;socket._fileobject object at 0x10b360e50&gt;</div></td></tr><tr><td style="font-weight:bold;vertical-align:top;">wsgi.multiprocess</td><td style="vertical-align:top;">:</td><td><div>False</div></td></tr><tr><td style="font-weight:bold;vertical-align:top;">wsgi.multithread</td><td style="vertical-align:top;">:</td><td><div>True</div></td></tr><tr><td style="font-weight:bold;vertical-align:top;">wsgi.run_once</td><td style="vertical-align:top;">:</td><td><div>False</div></td></tr><tr><td style="font-weight:bold;vertical-align:top;">wsgi.url_scheme</td><td style="vertical-align:top;">:</td><td><div>https</div></td></tr><tr><td style="font-weight:bold;vertical-align:top;">wsgi.version</td><td style="vertical-align:top;">:</td><td><div><table><tr><td><div>1</div></td></tr><tr><td><div>0</div></td></tr></table></div></td></tr><tr><td style="font-weight:bold;vertical-align:top;">wsgi_errors</td><td style="vertical-align:top;">:</td><td><div>&lt;open file &#x27;&lt;stderr&gt;&#x27;, mode &#x27;w&#x27; at 0x10586a1e0&gt;</div></td></tr><tr><td style="font-weight:bold;vertical-align:top;">wsgi_file_wrapper</td><td style="vertical-align:top;">:</td><td><div>&lt;class wsgiref.util.FileWrapper at 0x10686b808&gt;</div></td></tr><tr><td style="font-weight:bold;vertical-align:top;">wsgi_input</td><td style="vertical-align:top;">:</td><td><div>&lt;socket._fileobject object at 0x10b360e50&gt;</div></td></tr><tr><td style="font-weight:bold;vertical-align:top;">wsgi_multiprocess</td><td style="vertical-align:top;">:</td><td><div>False</div></td></tr><tr><td style="font-weight:bold;vertical-align:top;">wsgi_multithread</td><td style="vertical-align:top;">:</td><td><div>True</div></td></tr><tr><td style="font-weight:bold;vertical-align:top;">wsgi_run_once</td><td style="vertical-align:top;">:</td><td><div>False</div></td></tr><tr><td style="font-weight:bold;vertical-align:top;">wsgi_url_scheme</td><td style="vertical-align:top;">:</td><td><div>https</div></td></tr><tr><td style="font-weight:bold;vertical-align:top;">wsgi_version</td><td style="vertical-align:top;">:</td><td><div><table><tr><td><div>1</div></td></tr><tr><td><div>0</div></td></tr></table></div></td></tr></table></div></td></tr><tr><td style="font-weight:bold;vertical-align:top;">extension</td><td style="vertical-align:top;">:</td><td><div>html</div></td></tr><tr><td style="font-weight:bold;vertical-align:top;">folder</td><td style="vertical-align:top;">:</td><td><div>/Users/ecain/Projects/SOTA/web2py/applications/SOTA/</div></td></tr><tr><td style="font-weight:bold;vertical-align:top;">function</td><td style="vertical-align:top;">:</td><td><div>index</div></td></tr><tr><td style="font-weight:bold;vertical-align:top;">global_settings</td><td style="vertical-align:top;">:</td><td><div><table><tr><td style="font-weight:bold;vertical-align:top;">app_folders</td><td style="vertical-align:top;">:</td><td><div>set([&#x27;/Users/ecain/Projects/SOTA/web2py/applications/SOTA/&#x27;, &#x27;/Users/ecain/Projects/SOTA/web2py/applications/admin/&#x27;])</div></td></tr><tr><td style="font-weight:bold;vertical-align:top;">applications_parent</td><td style="vertical-align:top;">:</td><td><div>/Users/ecain/Projects/SOTA/web2py</div></td></tr><tr><td style="font-weight:bold;vertical-align:top;">cmd_args</td><td style="vertical-align:top;">:</td><td><div><table></table></div></td></tr><tr><td style="font-weight:bold;vertical-align:top;">cmd_options</td><td style="vertical-align:top;">:</td><td><div>&lt;Values at 0x1068bf248: {&#x27;verbose&#x27;: False, &#x27;ip&#x27;: &#x27;0.0.0.0&#x27;, &#x27;debuglevel&#x27;: 30, &#x27;with_scheduler&#x27;: False, &#x27;shutdown_timeout&#x27;: 5, &#x27;taskbar&#x27;: False, &#x27;with_coverage&#x27;: False, &#x27;pid_filename&#x27;: &#x27;httpserver.pid&#x27;, &#x27;maxthreads&#x27;: None, &#x27;softcron&#x27;: False, &#x27;server_name&#x27;: &#x27;eacain&#x27;, &#x27;bpython&#x27;: False, &#x27;nogui&#x27;: False, &#x27;port&#x27;: 8000, &#x27;print_errors&#x27;: False, &#x27;extcron&#x27;: False, &#x27;runcron&#x27;: False, &#x27;run_system_tests&#x27;: False, &#x27;test&#x27;: None, &#x27;folder&#x27;: &#x27;/Users/ecain/Projects/SOTA/web2py&#x27;, &#x27;config&#x27;: &#x27;&#x27;, &#x27;minthreads&#x27;: None, &#x27;shell&#x27;: None, &#x27;run&#x27;: &#x27;&#x27;, &#x27;log_filename&#x27;: &#x27;httpserver.log&#x27;, &#x27;profiler_dir&#x27;: None, &#x27;args&#x27;: [&#x27;&#x27;], &#x27;socket_timeout&#x27;: 5, &#x27;ssl_ca_certificate&#x27;: None, &#x27;scheduler&#x27;: None, &#x27;interfaces&#x27;: None, &#x27;ssl_private_key&#x27;: &#x27;server.key&#x27;, &#x27;gae&#x27;: None, &#x27;password&#x27;: &#x27;******&#x27;, &#x27;request_queue_size&#x27;: 5, &#x27;ssl_certificate&#x27;: &#x27;server.crt&#x27;, &#x27;cronjob&#x27;: False, &#x27;numthreads&#x27;: None, &#x27;quiet&#x27;: False, &#x27;import_models&#x27;: False, &#x27;timeout&#x27;: 10, &#x27;plain&#x27;: False, &#x27;nobanner&#x27;: False}&gt;</div></td></tr><tr><td style="font-weight:bold;vertical-align:top;">db_sessions</td><td style="vertical-align:top;">:</td><td><div>set([])</div></td></tr><tr><td style="font-weight:bold;vertical-align:top;">debugging</td><td style="vertical-align:top;">:</td><td><div>False</div></td></tr><tr><td style="font-weight:bold;vertical-align:top;">gluon_parent</td><td style="vertical-align:top;">:</td><td><div>/Users/ecain/Projects/SOTA/web2py</div></td></tr><tr><td style="font-weight:bold;vertical-align:top;">is_jython</td><td style="vertical-align:top;">:</td><td><div>False</div></td></tr><tr><td style="font-weight:bold;vertical-align:top;">is_py2</td><td style="vertical-align:top;">:</td><td><div>True</div></td></tr><tr><td style="font-weight:bold;vertical-align:top;">is_pypy</td><td style="vertical-align:top;">:</td><td><div>False</div></td></tr><tr><td style="font-weight:bold;vertical-align:top;">is_source</td><td style="vertical-align:top;">:</td><td><div>True</div></td></tr><tr><td style="font-weight:bold;vertical-align:top;">local_hosts</td><td style="vertical-align:top;">:</td><td><div><table><tr><td><div>::1</div></td></tr><tr><td><div>::ffff:127.0.0.1</div></td></tr><tr><td><div>127.0.0.1</div></td></tr><tr><td><div>eacain</div></td></tr></table></div></td></tr><tr><td style="font-weight:bold;vertical-align:top;">web2py_version</td><td style="vertical-align:top;">:</td><td><div>2.14.6-stable+timestamp.2016.05.09.19.18.48</div></td></tr></table></div></td></tr><tr><td style="font-weight:bold;vertical-align:top;">is_https</td><td style="vertical-align:top;">:</td><td><div>True</div></td></tr><tr><td style="font-weight:bold;vertical-align:top;">is_local</td><td style="vertical-align:top;">:</td><td><div>True</div></td></tr><tr><td style="font-weight:bold;vertical-align:top;">is_restful</td><td style="vertical-align:top;">:</td><td><div>False</div></td></tr><tr><td style="font-weight:bold;vertical-align:top;">is_scheduler</td><td style="vertical-align:top;">:</td><td><div>False</div></td></tr><tr><td style="font-weight:bold;vertical-align:top;">is_shell</td><td style="vertical-align:top;">:</td><td><div>False</div></td></tr><tr><td style="font-weight:bold;vertical-align:top;">now</td><td style="vertical-align:top;">:</td><td><div>datetime.datetime(2016, 12, 13, 15, 50, 19, 490217)</div></td></tr><tr><td style="font-weight:bold;vertical-align:top;">raw_args</td><td style="vertical-align:top;">:</td><td><div></div></td></tr><tr><td style="font-weight:bold;vertical-align:top;">raw_extension</td><td style="vertical-align:top;">:</td><td><div>None</div></td></tr><tr><td style="font-weight:bold;vertical-align:top;">url</td><td style="vertical-align:top;">:</td><td><div>/SOTA/default/index</div></td></tr><tr><td style="font-weight:bold;vertical-align:top;">utcnow</td><td style="vertical-align:top;">:</td><td><div>datetime.datetime(2016, 12, 13, 21, 50, 19, 490226)</div></td></tr><tr><td style="font-weight:bold;vertical-align:top;">wsgi</td><td style="vertical-align:top;">:</td><td><div>&lt;gluon.main.LazyWSGI object at 0x10b3f4610&gt;</div></td></tr></table></div>'
tRp64
sS'frames'
p65
(lp66
(dp67
S'file'
p68
S'/Users/ecain/Projects/SOTA/web2py/gluon/restricted.py'
p69
sS'dump'
p70
(dp71
S'environment'
p72
S"{'A': <class 'gluon.html.A'>, 'ANY_OF': <class 'gluon.validators.ANY_OF'>, 'ASSIGNJS': <function ASSIGNJS>, 'AppConfig': <function AppConfig>, 'Auth': <class 'gluon.tools.Auth'>, 'B': <class 'gluon.html.B'>, 'BEAUTIFY': <class 'gluon.html.BEAUTIFY'>, 'BODY': <class 'gluon.html.BODY'>, 'BR': <class 'gluon.html.BR'>, 'BUTTON': <class 'gluon.html.BUTTON'>, ...}"
p73
sS'ccode'
p74
S'<code object <module> at 0x10b360db0, file "/Use...A/web2py/applications/SOTA/models/db.py", line 8>'
p75
ssS'lnum'
p76
I216
sS'lines'
p77
(dp78
I211
S'    if environment is None:'
p79
sI212
S'        environment = {}'
p80
sI213
S"    environment['__file__'] = layer"
p81
sI214
S"    environment['__name__'] = '__restricted__'"
p82
sI215
S'    try:'
p83
sI216
S'        exec(ccode, environment)'
p84
sI217
S'    except HTTP:'
p85
sI218
S'        raise'
p86
sI219
S'    except RestrictedError:'
p87
sI220
S'        # do not encapsulate (obfuscate) the original RestrictedError'
p88
ssS'call'
p89
S'(ccode=<code object <module> at 0x10b360db0, file "/Use...A/web2py/applications/SOTA/models/db.py", line 8>, environment={\'A\': <class \'gluon.html.A\'>, \'ANY_OF\': <class \'gluon.validators.ANY_OF\'>, \'ASSIGNJS\': <function ASSIGNJS>, \'AppConfig\': <function AppConfig>, \'Auth\': <class \'gluon.tools.Auth\'>, \'B\': <class \'gluon.html.B\'>, \'BEAUTIFY\': <class \'gluon.html.BEAUTIFY\'>, \'BODY\': <class \'gluon.html.BODY\'>, \'BR\': <class \'gluon.html.BR\'>, \'BUTTON\': <class \'gluon.html.BUTTON\'>, ...}, layer=\'/Users/ecain/Projects/SOTA/web2py/applications/SOTA/models/db.py\')'
p90
sS'func'
p91
S'restricted'
p92
sa(dp93
g68
S'/Users/ecain/Projects/SOTA/web2py/applications/SOTA/models/db.py'
p94
sg70
(dp95
S'migrate'
p96
S'undefined'
p97
ssg76
I130
sg77
(dp98
I128
S"                db.Field('update_image', 'upload', required=True, requires=IS_NOT_EMPTY()),"
p99
sI129
S"                db.Field('metadata', 'string', required=True, requires=IS_NOT_EMPTY(), readable=True, writable=False),"
p100
sI130
S"                migrate='ecu_db.table')"
p101
sI131
S''
sI132
S"db.define_table('vehicle_db',"
p102
sI133
S"                db.Field('oem', 'string', length=25, requires=IS_IN_SET(['oem1', 'oem2'])),"
p103
sI134
S"                db.Field('ecu_list', 'list:string', length=25, required=True),"
p104
sI125
S"                db.Field('supplier_name', 'string', length=25, default=auth.user.username if auth.user else None, readable=False, writable=False),"
p105
sI126
S"                db.Field('update_version', 'string', length=25,  requires=IS_NOT_EMPTY()),"
p106
sI127
S"                db.Field('applicable_ecu', 'string', requires=IS_IN_SET(['ecu1', 'ecu2', 'ecu3'])),"
p107
ssg89
S'()'
p108
sg91
S'<module>'
p109
sa(dp110
g68
S'/Users/ecain/Projects/SOTA/web2py/gluon/packages/dal/pydal/base.py'
p111
sg70
(dp112
S'fields'
p113
S'(<pydal.objects.Field object>, <pydal.objects.Field object>, <pydal.objects.Field object>, <pydal.objects.Field object>, <pydal.objects.Field object>)'
p114
sS'self'
p115
S'<DAL uri="sqlite://storage.sqlite">'
p116
sS'args'
p117
S"{'migrate': 'ecu_db.table'}"
p118
sS'tablename'
p119
S"'ecu_db'"
p120
sS'table'
p121
g97
sS'self.lazy_define_table'
p122
S'<bound method DAL.lazy_define_table of <DAL uri="sqlite://storage.sqlite">>'
p123
ssg76
I587
sg77
(dp124
I582
S'                                  (tablename, invalid_args))'
p125
sI583
S'        if self._lazy_tables and tablename not in self._LAZY_TABLES:'
p126
sI584
S'            self._LAZY_TABLES[tablename] = (tablename, fields, args)'
p127
sI585
S'            table = None'
p128
sI586
S'        else:'
p129
sI587
S'            table = self.lazy_define_table(tablename, *fields, **args)'
p130
sI588
S'        if tablename not in self.tables:'
p131
sI589
S'            self.tables.append(tablename)'
p132
sI590
S'        return table'
p133
sI591
S''
ssg89
S'(self=<DAL uri="sqlite://storage.sqlite">, tablename=\'ecu_db\', *fields=(<pydal.objects.Field object>, <pydal.objects.Field object>, <pydal.objects.Field object>, <pydal.objects.Field object>, <pydal.objects.Field object>), **args={\'migrate\': \'ecu_db.table\'})'
p134
sg91
S'define_table'
p135
sa(dp136
g68
S'/Users/ecain/Projects/SOTA/web2py/gluon/packages/dal/pydal/base.py'
p137
sg70
(dp138
S'polymodel'
p139
S'None'
p140
ssg76
I621
sg77
(dp141
I616
S'            try:'
p142
sI617
S'                GLOBAL_LOCKER.acquire()'
p143
sI618
S'                self._adapter.create_table('
p144
sI619
S'                    table, migrate=migrate,'
p145
sI620
S'                    fake_migrate=fake_migrate,'
p146
sI621
S'                    polymodel=polymodel)'
p147
sI622
S'            finally:'
p148
sI623
S'                GLOBAL_LOCKER.release()'
p149
sI624
S'        else:'
p150
sI625
S'            table._dbt = None'
p151
ssg89
S'(self=<DAL uri="sqlite://storage.sqlite">, tablename=\'ecu_db\', *fields=(<pydal.objects.Field object>, <pydal.objects.Field object>, <pydal.objects.Field object>, <pydal.objects.Field object>, <pydal.objects.Field object>), **args={\'migrate\': \'ecu_db.table\'})'
p152
sg91
S'lazy_define_table'
p153
sa(dp154
g68
S'/Users/ecain/Projects/SOTA/web2py/gluon/packages/dal/pydal/adapters/base.py'
p155
sg70
(dp156
S'self'
p157
S'<pydal.adapters.sqlite.SQLite object>'
p158
sS'args'
p159
S'(<Table ecu_db (id, supplier_name, update_version, applicable_ecu, update_image, metadata)>,)'
p160
sS'self.migrator'
p161
S'<pydal.migrator.Migrator object>'
p162
sS'self.migrator.create_table'
p163
S'<bound method Migrator.create_table of <pydal.migrator.Migrator object>>'
p164
sS'kwargs'
p165
S"{'fake_migrate': False, 'migrate': 'ecu_db.table', 'polymodel': None}"
p166
ssg76
I778
sg77
(dp167
I773
S''
sI774
S'    def bulk_insert(self, table, items):'
p168
sI775
S'        return [self.insert(table, item) for item in items]'
p169
sI776
S''
sI777
S'    def create_table(self, *args, **kwargs):'
p170
sI778
S'        return self.migrator.create_table(*args, **kwargs)'
p171
sI779
S''
sI780
S'    def _drop_table_cleanup(self, table):'
p172
sI781
S'        super(SQLAdapter, self)._drop_table_cleanup(table)'
p173
sI782
S'        if table._dbt:'
p174
ssg89
S"(self=<pydal.adapters.sqlite.SQLite object>, *args=(<Table ecu_db (id, supplier_name, update_version, applicable_ecu, update_image, metadata)>,), **kwargs={'fake_migrate': False, 'migrate': 'ecu_db.table', 'polymodel': None})"
p175
sg91
S'create_table'
p176
sa(dp177
g68
S'/Users/ecain/Projects/SOTA/web2py/gluon/packages/dal/pydal/migrator.py'
p178
sg70
(dp179
S'query'
p180
S'\'CREATE TABLE "ecu_db"(\\n    "id" INTEGER PRIMARY ...ate_image" CHAR(512),\\n    "metadata" CHAR(512)\\n);\''
p181
sS'self'
p182
S'<pydal.migrator.Migrator object>'
p183
sS'self.adapter'
p184
S'<pydal.adapters.sqlite.SQLite object>'
p185
sS'self.adapter.create_sequence_and_triggers'
p186
S'<bound method SQLite.create_sequence_and_triggers of <pydal.adapters.sqlite.SQLite object>>'
p187
sS'table'
p188
S'<Table ecu_db (id, supplier_name, update_version, applicable_ecu, update_image, metadata)>'
p189
ssg76
I269
sg77
(dp190
I264
S'            if table._dbt:'
p191
sI265
S"                self.log('timestamp: %s\\n%s\\n'"
p192
sI266
S'                         % (datetime.datetime.today().isoformat(),'
p193
sI267
S'                            query), table)'
p194
sI268
S'            if not fake_migrate:'
p195
sI269
S'                self.adapter.create_sequence_and_triggers(query, table)'
p196
sI270
S'                db.commit()'
p197
sI271
S'                # Postgres geom fields are added now,'
p198
sI272
S'                # after the table has been created'
p199
sI273
S'                for query in postcreation_fields:'
p200
ssg89
S"(self=<pydal.migrator.Migrator object>, table=<Table ecu_db (id, supplier_name, update_version, applicable_ecu, update_image, metadata)>, migrate='ecu_db.table', fake_migrate=False, polymodel=None)"
p201
sg91
g176
sa(dp202
g68
S'/Users/ecain/Projects/SOTA/web2py/gluon/packages/dal/pydal/adapters/base.py'
p203
sg70
(dp204
S'query'
p205
S'\'CREATE TABLE "ecu_db"(\\n    "id" INTEGER PRIMARY ...ate_image" CHAR(512),\\n    "metadata" CHAR(512)\\n);\''
p206
sS'self'
p207
S'<pydal.adapters.sqlite.SQLite object>'
p208
sS'self.execute'
p209
S'<bound method SQLite.wrap of <pydal.adapters.sqlite.SQLite object>>'
p210
ssg76
I861
sg77
(dp211
I864
S'        if original_tablename is not None:'
p212
sI865
S'            return self.dialect.alias(original_tablename, tablename)'
p213
sI856
S'    @with_connection'
p214
sI857
S'    def rollback_prepared(self, key):'
p215
sI858
S'        self.connection.rollback()'
p216
sI859
S''
sI860
S'    def create_sequence_and_triggers(self, query, table, **args):'
p217
sI861
S'        self.execute(query)'
p218
sI862
S''
sI863
S'    def sqlsafe_table(self, tablename, original_tablename=None):'
p219
ssg89
S'(self=<pydal.adapters.sqlite.SQLite object>, query=\'CREATE TABLE "ecu_db"(\\n    "id" INTEGER PRIMARY ...ate_image" CHAR(512),\\n    "metadata" CHAR(512)\\n);\', table=<Table ecu_db (id, supplier_name, update_version, applicable_ecu, update_image, metadata)>, **args={})'
p220
sg91
S'create_sequence_and_triggers'
p221
sa(dp222
g68
S'/Users/ecain/Projects/SOTA/web2py/gluon/packages/dal/pydal/adapters/__init__.py'
p223
sg70
(dp224
S'kwargs'
p225
g21
sS'args'
p226
S'(<pydal.adapters.sqlite.SQLite object>, \'CREATE TABLE "ecu_db"(\\n    "id" INTEGER PRIMARY ...ate_image" CHAR(512),\\n    "metadata" CHAR(512)\\n);\')'
p227
sS'f'
S'<function execute>'
p228
ssg76
I67
sg77
(dp229
I64
S'            if len(args) > 1:'
p230
sI65
S'                raise ValueError(args[1])'
p231
sI66
S"            raise RuntimeError('no connection available')"
p232
sI67
S'        return f(*args, **kwargs)'
p233
sI68
S'    return wrap'
p234
sI69
S''
sI70
S''
sI71
S'from .base import SQLAdapter, NoSQLAdapter'
p235
sI62
S'    def wrap(*args, **kwargs):'
p236
sI63
S'        if not args[0].connection:'
p237
ssg89
S'(*args=(<pydal.adapters.sqlite.SQLite object>, \'CREATE TABLE "ecu_db"(\\n    "id" INTEGER PRIMARY ...ate_image" CHAR(512),\\n    "metadata" CHAR(512)\\n);\'), **kwargs={})'
p238
sg91
S'wrap'
p239
sa(dp240
g68
S'/Users/ecain/Projects/SOTA/web2py/gluon/packages/dal/pydal/adapters/base.py'
p241
sg70
(dp242
S'rv'
p243
g97
sS'self'
p244
S'<pydal.adapters.sqlite.SQLite object>'
p245
sS'args'
p246
S'(\'CREATE TABLE "ecu_db"(\\n    "id" INTEGER PRIMARY ...ate_image" CHAR(512),\\n    "metadata" CHAR(512)\\n);\',)'
p247
sS'self.cursor'
p248
S'<sqlite3.Cursor object>'
p249
sS'command'
p250
S'\'CREATE TABLE "ecu_db"(\\n    "id" INTEGER PRIMARY ...ate_image" CHAR(512),\\n    "metadata" CHAR(512)\\n);\''
p251
sS'self.cursor.execute'
p252
S'<built-in method execute of sqlite3.Cursor object>'
p253
sS'kwargs'
p254
g21
ssg76
I416
sg77
(dp255
I416
S'        rv = self.cursor.execute(command, *args[1:], **kwargs)'
p256
sI417
S'        for handler in handlers:'
p257
sI418
S'            handler.after_execute(command)'
p258
sI419
S'        return rv'
p259
sI420
S''
sI411
S'    def execute(self, *args, **kwargs):'
p260
sI412
S'        command = self.filter_sql_command(args[0])'
p261
sI413
S'        handlers = self._build_handlers_for_execution()'
p262
sI414
S'        for handler in handlers:'
p263
sI415
S'            handler.before_execute(command)'
p264
ssg89
S'(self=<pydal.adapters.sqlite.SQLite object>, *args=(\'CREATE TABLE "ecu_db"(\\n    "id" INTEGER PRIMARY ...ate_image" CHAR(512),\\n    "metadata" CHAR(512)\\n);\',), **kwargs={})'
p265
sg91
S'execute'
p266
sasS'pyver'
p267
S'Python 2.7.10: /usr/bin/python (prefix: /System/Library/Frameworks/Python.framework/Versions/2.7)'
p268
sS'session'
p269
g63
(S'sb\x0c\x00\x00<div><table><tr><td style="font-weight:bold;vertical-align:top;">auth</td><td style="vertical-align:top;">:</td><td><div><table><tr><td style="font-weight:bold;vertical-align:top;">expiration</td><td style="vertical-align:top;">:</td><td><div>3600</div></td></tr><tr><td style="font-weight:bold;vertical-align:top;">hmac_key</td><td style="vertical-align:top;">:</td><td><div>0b93626a-dbcc-4d77-8e57-ae16e9268dc5</div></td></tr><tr><td style="font-weight:bold;vertical-align:top;">last_visit</td><td style="vertical-align:top;">:</td><td><div>datetime.datetime(2016, 12, 13, 15, 49, 16, 391654)</div></td></tr><tr><td style="font-weight:bold;vertical-align:top;">remember_me</td><td style="vertical-align:top;">:</td><td><div>False</div></td></tr><tr><td style="font-weight:bold;vertical-align:top;">user</td><td style="vertical-align:top;">:</td><td><div><table><tr><td style="font-weight:bold;vertical-align:top;">created_by</td><td style="vertical-align:top;">:</td><td><div>None</div></td></tr><tr><td style="font-weight:bold;vertical-align:top;">created_on</td><td style="vertical-align:top;">:</td><td><div>datetime.datetime(2016, 12, 9, 9, 49, 31)</div></td></tr><tr><td style="font-weight:bold;vertical-align:top;">email</td><td style="vertical-align:top;">:</td><td><div>supplier1@gmail.com</div></td></tr><tr><td style="font-weight:bold;vertical-align:top;">first_name</td><td style="vertical-align:top;">:</td><td><div>Supplier1</div></td></tr><tr><td style="font-weight:bold;vertical-align:top;">id</td><td style="vertical-align:top;">:</td><td><div>2L</div></td></tr><tr><td style="font-weight:bold;vertical-align:top;">is_active</td><td style="vertical-align:top;">:</td><td><div>True</div></td></tr><tr><td style="font-weight:bold;vertical-align:top;">last_name</td><td style="vertical-align:top;">:</td><td><div>1</div></td></tr><tr><td style="font-weight:bold;vertical-align:top;">modified_by</td><td style="vertical-align:top;">:</td><td><div>2L</div></td></tr><tr><td style="font-weight:bold;vertical-align:top;">modified_on</td><td style="vertical-align:top;">:</td><td><div>datetime.datetime(2016, 12, 9, 13, 29, 38)</div></td></tr><tr><td style="font-weight:bold;vertical-align:top;">registration_id</td><td style="vertical-align:top;">:</td><td><div></div></td></tr><tr><td style="font-weight:bold;vertical-align:top;">registration_key</td><td style="vertical-align:top;">:</td><td><div></div></td></tr><tr><td style="font-weight:bold;vertical-align:top;">reset_password_key</td><td style="vertical-align:top;">:</td><td><div></div></td></tr><tr><td style="font-weight:bold;vertical-align:top;">username</td><td style="vertical-align:top;">:</td><td><div>supplier1</div></td></tr></table></div></td></tr><tr><td style="font-weight:bold;vertical-align:top;">user_groups</td><td style="vertical-align:top;">:</td><td><div><table><tr><td style="font-weight:bold;vertical-align:top;">2</td><td style="vertical-align:top;">:</td><td><div>user_2</div></td></tr></table></div></td></tr></table></div></td></tr><tr><td style="font-weight:bold;vertical-align:top;">flash</td><td style="vertical-align:top;">:</td><td><div>None</div></td></tr></table></div>'
tRp270
sS'etype'
p271
S"<class 'sqlite3.OperationalError'>"
p272
sS'date'
p273
S'Tue Dec 13 15:50:19 2016'
p274
sS'response'
p275
g63
(S'sh\x17\x00\x00<div><table><tr><td style="font-weight:bold;vertical-align:top;">body</td><td style="vertical-align:top;">:</td><td><div>&lt;cStringIO.StringO object at 0x10b409d18&gt;</div></td></tr><tr><td style="font-weight:bold;vertical-align:top;">cookies</td><td style="vertical-align:top;">:</td><td><div><table><tr><td style="font-weight:bold;vertical-align:top;">session_id_sota</td><td style="vertical-align:top;">:</td><td><div>127.0.0.1-d9bbd377-982e-4472-9ec3-cedb9481f9cf<table><tr><td style="font-weight:bold;vertical-align:top;">comment</td><td style="vertical-align:top;">:</td><td><div></div></td></tr><tr><td style="font-weight:bold;vertical-align:top;">domain</td><td style="vertical-align:top;">:</td><td><div></div></td></tr><tr><td style="font-weight:bold;vertical-align:top;">expires</td><td style="vertical-align:top;">:</td><td><div></div></td></tr><tr><td style="font-weight:bold;vertical-align:top;">httponly</td><td style="vertical-align:top;">:</td><td><div></div></td></tr><tr><td style="font-weight:bold;vertical-align:top;">max-age</td><td style="vertical-align:top;">:</td><td><div></div></td></tr><tr><td style="font-weight:bold;vertical-align:top;">path</td><td style="vertical-align:top;">:</td><td><div>/</div></td></tr><tr><td style="font-weight:bold;vertical-align:top;">secure</td><td style="vertical-align:top;">:</td><td><div></div></td></tr><tr><td style="font-weight:bold;vertical-align:top;">version</td><td style="vertical-align:top;">:</td><td><div></div></td></tr></table></div></td></tr></table></div></td></tr><tr><td style="font-weight:bold;vertical-align:top;">delimiters</td><td style="vertical-align:top;">:</td><td><div><table><tr><td><div>{{</div></td></tr><tr><td><div>}}</div></td></tr></table></div></td></tr><tr><td style="font-weight:bold;vertical-align:top;">files</td><td style="vertical-align:top;">:</td><td><div><table></table></div></td></tr><tr><td style="font-weight:bold;vertical-align:top;">flash</td><td style="vertical-align:top;">:</td><td><div></div></td></tr><tr><td style="font-weight:bold;vertical-align:top;">form_label_separator</td><td style="vertical-align:top;">:</td><td><div></div></td></tr><tr><td style="font-weight:bold;vertical-align:top;">formstyle</td><td style="vertical-align:top;">:</td><td><div>bootstrap3_inline</div></td></tr><tr><td style="font-weight:bold;vertical-align:top;">generic_patterns</td><td style="vertical-align:top;">:</td><td><div><table><tr><td><div>*</div></td></tr></table></div></td></tr><tr><td style="font-weight:bold;vertical-align:top;">headers</td><td style="vertical-align:top;">:</td><td><div><table><tr><td style="font-weight:bold;vertical-align:top;">X-Powered-By</td><td style="vertical-align:top;">:</td><td><div>web2py</div></td></tr></table></div></td></tr><tr><td style="font-weight:bold;vertical-align:top;">menu</td><td style="vertical-align:top;">:</td><td><div><table></table></div></td></tr><tr><td style="font-weight:bold;vertical-align:top;">meta</td><td style="vertical-align:top;">:</td><td><div><table></table></div></td></tr><tr><td style="font-weight:bold;vertical-align:top;">models_to_run</td><td style="vertical-align:top;">:</td><td><div><table><tr><td><div>^\\w+\\.py$</div></td></tr><tr><td><div>^default/\\w+\\.py$</div></td></tr><tr><td><div>^default/index/\\w+\\.py$</div></td></tr></table></div></td></tr><tr><td style="font-weight:bold;vertical-align:top;">postprocessing</td><td style="vertical-align:top;">:</td><td><div><table></table></div></td></tr><tr><td style="font-weight:bold;vertical-align:top;">session_client</td><td style="vertical-align:top;">:</td><td><div>127.0.0.1</div></td></tr><tr><td style="font-weight:bold;vertical-align:top;">session_cookie_compression_level</td><td style="vertical-align:top;">:</td><td><div>None</div></td></tr><tr><td style="font-weight:bold;vertical-align:top;">session_cookie_expires</td><td style="vertical-align:top;">:</td><td><div>None</div></td></tr><tr><td style="font-weight:bold;vertical-align:top;">session_data_name</td><td style="vertical-align:top;">:</td><td><div>session_data_sota</div></td></tr><tr><td style="font-weight:bold;vertical-align:top;">session_file</td><td style="vertical-align:top;">:</td><td><div>&lt;open file &#x27;/Users/ecain/Projects/SOTA/web2py/applications/SOTA/sessions/0f6/1f6/127.0.0.1-d9bbd377-982e-4472-9ec3-cedb9481f9cf&#x27;, mode &#x27;rb+&#x27; at 0x10b35c300&gt;</div></td></tr><tr><td style="font-weight:bold;vertical-align:top;">session_filename</td><td style="vertical-align:top;">:</td><td><div>/Users/ecain/Projects/SOTA/web2py/applications/SOTA/sessions/127.0.0.1-d9bbd377-982e-4472-9ec3-cedb9481f9cf</div></td></tr><tr><td style="font-weight:bold;vertical-align:top;">session_hash</td><td style="vertical-align:top;">:</td><td><div>f01c0a91232b630e134399569464c1a7</div></td></tr><tr><td style="font-weight:bold;vertical-align:top;">session_id</td><td style="vertical-align:top;">:</td><td><div>127.0.0.1-d9bbd377-982e-4472-9ec3-cedb9481f9cf</div></td></tr><tr><td style="font-weight:bold;vertical-align:top;">session_id_name</td><td style="vertical-align:top;">:</td><td><div>session_id_sota</div></td></tr><tr><td style="font-weight:bold;vertical-align:top;">session_locked</td><td style="vertical-align:top;">:</td><td><div>True</div></td></tr><tr><td style="font-weight:bold;vertical-align:top;">session_masterapp</td><td style="vertical-align:top;">:</td><td><div>SOTA</div></td></tr><tr><td style="font-weight:bold;vertical-align:top;">session_new</td><td style="vertical-align:top;">:</td><td><div>False</div></td></tr><tr><td style="font-weight:bold;vertical-align:top;">session_storage_type</td><td style="vertical-align:top;">:</td><td><div>file</div></td></tr><tr><td style="font-weight:bold;vertical-align:top;">status</td><td style="vertical-align:top;">:</td><td><div>200</div></td></tr><tr><td style="font-weight:bold;vertical-align:top;">view</td><td style="vertical-align:top;">:</td><td><div>default/index.html</div></td></tr></table></div>'
tRp276
sS'locals'
p277
(dp278
S'handlers'
p279
S'[<pydal.helpers.classes.TimingHandler object>]'
p280
sS'self'
p281
S'<pydal.adapters.sqlite.SQLite object>'
p282
sg48
S'(\'CREATE TABLE "ecu_db"(\\n    "id" INTEGER PRIMARY ...ate_image" CHAR(512),\\n    "metadata" CHAR(512)\\n);\',)'
p283
sS'handler'
p284
S'<pydal.helpers.classes.TimingHandler object>'
p285
sS'command'
p286
S'\'CREATE TABLE "ecu_db"(\\n    "id" INTEGER PRIMARY ...ate_image" CHAR(512),\\n    "metadata" CHAR(512)\\n);\''
p287
sS'kwargs'
p288
g21
sssS'traceback'
p289
S'Traceback (most recent call last):\n  File "/Users/ecain/Projects/SOTA/web2py/gluon/restricted.py", line 216, in restricted\n    exec(ccode, environment)\n  File "/Users/ecain/Projects/SOTA/web2py/applications/SOTA/models/db.py", line 130, in <module>\n    migrate=\'ecu_db.table\')\n  File "/Users/ecain/Projects/SOTA/web2py/gluon/packages/dal/pydal/base.py", line 587, in define_table\n    table = self.lazy_define_table(tablename, *fields, **args)\n  File "/Users/ecain/Projects/SOTA/web2py/gluon/packages/dal/pydal/base.py", line 621, in lazy_define_table\n    polymodel=polymodel)\n  File "/Users/ecain/Projects/SOTA/web2py/gluon/packages/dal/pydal/adapters/base.py", line 778, in create_table\n    return self.migrator.create_table(*args, **kwargs)\n  File "/Users/ecain/Projects/SOTA/web2py/gluon/packages/dal/pydal/migrator.py", line 269, in create_table\n    self.adapter.create_sequence_and_triggers(query, table)\n  File "/Users/ecain/Projects/SOTA/web2py/gluon/packages/dal/pydal/adapters/base.py", line 861, in create_sequence_and_triggers\n    self.execute(query)\n  File "/Users/ecain/Projects/SOTA/web2py/gluon/packages/dal/pydal/adapters/__init__.py", line 67, in wrap\n    return f(*args, **kwargs)\n  File "/Users/ecain/Projects/SOTA/web2py/gluon/packages/dal/pydal/adapters/base.py", line 416, in execute\n    rv = self.cursor.execute(command, *args[1:], **kwargs)\nOperationalError: table "ecu_db" already exists\n'
p290
s.