(dp1
S'output'
p2
S"<class 'sqlite3.OperationalError'> table vehicle_db has no column named vehicle_name"
p3
sS'layer'
p4
S'/Users/ecain/Projects/SOTA/web2py/applications/SOTA/controllers/default.py'
p5
sS'code'
p6
S'<code object <module> at 0x1150302b0, file "/Users/ecain/Projects/SOTA/web2py/applications/SOTA/controllers/default.py:index", line 10>'
p7
sS'snapshot'
p8
(dp9
sS'traceback'
p10
S'Traceback (most recent call last):\n  File "/Users/ecain/Projects/SOTA/web2py/gluon/restricted.py", line 216, in restricted\n    exec(ccode, environment)\n  File "/Users/ecain/Projects/SOTA/web2py/applications/SOTA/controllers/default.py:index", line 173, in <module>\n  File "/Users/ecain/Projects/SOTA/web2py/gluon/globals.py", line 405, in <lambda>\n    self._caller = lambda f: f()\n  File "/Users/ecain/Projects/SOTA/web2py/gluon/tools.py", line 4321, in f\n    return action(*a, **b)\n  File "/Users/ecain/Projects/SOTA/web2py/applications/SOTA/controllers/default.py:index", line 25, in index\n  File "/Users/ecain/Projects/SOTA/web2py/gluon/tools.py", line 4321, in f\n    return action(*a, **b)\n  File "/Users/ecain/Projects/SOTA/web2py/applications/SOTA/controllers/default.py:index", line 170, in database_contents\n  File "/Users/ecain/Projects/SOTA/web2py/gluon/sqlhtml.py", line 2420, in grid\n    onsuccess=oncreate)\n  File "/Users/ecain/Projects/SOTA/web2py/gluon/html.py", line 2298, in process\n    self.validate(**kwargs)\n  File "/Users/ecain/Projects/SOTA/web2py/gluon/html.py", line 2236, in validate\n    if self.accepts(**kwargs):\n  File "/Users/ecain/Projects/SOTA/web2py/gluon/sqlhtml.py", line 1857, in accepts\n    self.vars.id = self.table.insert(**fields)\n  File "/Users/ecain/Projects/SOTA/web2py/gluon/packages/dal/pydal/objects.py", line 741, in insert\n    ret = self._db._adapter.insert(self, self._listify(fields))\n  File "/Users/ecain/Projects/SOTA/web2py/gluon/packages/dal/pydal/adapters/base.py", line 492, in insert\n    raise e\nOperationalError: table vehicle_db has no column named vehicle_name\n'
p11
s.