(dp1
S'output'
p2
S'<class \'sqlite3.OperationalError\'> table "auth_user" already exists'
p3
sS'layer'
p4
S'/Users/ecain/Projects/SOTA/web2py/applications/SOTA/models/db.py'
p5
sS'code'
p6
S'<code object <module> at 0x112438b30, file "/Users/ecain/Projects/SOTA/web2py/applications/SOTA/models/db.py", line 8>'
p7
sS'snapshot'
p8
(dp9
S'exception'
p10
(dp11
S'__module__'
p12
S"'sqlite3'"
p13
sS'__getslice__'
p14
S"<method-wrapper '__getslice__' of OperationalError object>"
p15
sS'__str__'
p16
S"<method-wrapper '__str__' of OperationalError object>"
p17
sS'__reduce__'
p18
S'<built-in method __reduce__ of OperationalError object>'
p19
sS'__dict__'
p20
S'{}'
p21
sS'__sizeof__'
p22
S'<built-in method __sizeof__ of OperationalError object>'
p23
sS'__weakref__'
p24
S'None'
p25
sS'message'
p26
S'\'table "auth_user" already exists\''
p27
sS'__init__'
p28
S"<method-wrapper '__init__' of OperationalError object>"
p29
sS'__setattr__'
p30
S"<method-wrapper '__setattr__' of OperationalError object>"
p31
sS'__reduce_ex__'
p32
S'<built-in method __reduce_ex__ of OperationalError object>'
p33
sS'__new__'
p34
S'<built-in method __new__ of type object>'
p35
sS'__format__'
p36
S'<built-in method __format__ of OperationalError object>'
p37
sS'__class__'
p38
S"<class 'sqlite3.OperationalError'>"
p39
sS'__doc__'
p40
S'None'
p41
sS'__getitem__'
p42
S"<method-wrapper '__getitem__' of OperationalError object>"
p43
sS'__setstate__'
p44
S'<built-in method __setstate__ of OperationalError object>'
p45
sS'__getattribute__'
p46
S"<method-wrapper '__getattribute__' of OperationalError object>"
p47
sS'args'
p48
S'(\'table "auth_user" already exists\',)'
p49
sS'__subclasshook__'
p50
S'<built-in method __subclasshook__ of type object>'
p51
sS'__unicode__'
p52
S'<built-in method __unicode__ of OperationalError object>'
p53
sS'__delattr__'
p54
S"<method-wrapper '__delattr__' of OperationalError object>"
p55
sS'__repr__'
p56
S"<method-wrapper '__repr__' of OperationalError object>"
p57
sS'__hash__'
p58
S"<method-wrapper '__hash__' of OperationalError object>"
p59
ssS'evalue'
p60
S'table "auth_user" already exists'
p61
sS'request'
p62
cgluon.html
XML_unpickle
p63
(S'sO_\x00\x00<div><table><tr><td style="font-weight:bold;vertical-align:top;">ajax</td><td style="vertical-align:top;">:</td><td><div>False</div></td></tr><tr><td style="font-weight:bold;vertical-align:top;">application</td><td style="vertical-align:top;">:</td><td><div>SOTA</div></td></tr><tr><td style="font-weight:bold;vertical-align:top;">args</td><td style="vertical-align:top;">:</td><td><div><table></table></div></td></tr><tr><td style="font-weight:bold;vertical-align:top;">cid</td><td style="vertical-align:top;">:</td><td><div>None</div></td></tr><tr><td style="font-weight:bold;vertical-align:top;">client</td><td style="vertical-align:top;">:</td><td><div>127.0.0.1</div></td></tr><tr><td style="font-weight:bold;vertical-align:top;">controller</td><td style="vertical-align:top;">:</td><td><div>default</div></td></tr><tr><td style="font-weight:bold;vertical-align:top;">cookies</td><td style="vertical-align:top;">:</td><td><div><table><tr><td style="font-weight:bold;vertical-align:top;">csrftoken</td><td style="vertical-align:top;">:</td><td><div>1IDx8BTnyy9FCtyjuOYxlnc3y9TqicAU<table><tr><td style="font-weight:bold;vertical-align:top;">comment</td><td style="vertical-align:top;">:</td><td><div></div></td></tr><tr><td style="font-weight:bold;vertical-align:top;">domain</td><td style="vertical-align:top;">:</td><td><div></div></td></tr><tr><td style="font-weight:bold;vertical-align:top;">expires</td><td style="vertical-align:top;">:</td><td><div></div></td></tr><tr><td style="font-weight:bold;vertical-align:top;">httponly</td><td style="vertical-align:top;">:</td><td><div></div></td></tr><tr><td style="font-weight:bold;vertical-align:top;">max-age</td><td style="vertical-align:top;">:</td><td><div></div></td></tr><tr><td style="font-weight:bold;vertical-align:top;">path</td><td style="vertical-align:top;">:</td><td><div></div></td></tr><tr><td style="font-weight:bold;vertical-align:top;">secure</td><td style="vertical-align:top;">:</td><td><div></div></td></tr><tr><td style="font-weight:bold;vertical-align:top;">version</td><td style="vertical-align:top;">:</td><td><div></div></td></tr></table></div></td></tr><tr><td style="font-weight:bold;vertical-align:top;">session_id_admin</td><td style="vertical-align:top;">:</td><td><div>127.0.0.1-c4c8ced8-3841-4b52-a2f6-3b3f51bae063<table><tr><td style="font-weight:bold;vertical-align:top;">comment</td><td style="vertical-align:top;">:</td><td><div></div></td></tr><tr><td style="font-weight:bold;vertical-align:top;">domain</td><td style="vertical-align:top;">:</td><td><div></div></td></tr><tr><td style="font-weight:bold;vertical-align:top;">expires</td><td style="vertical-align:top;">:</td><td><div></div></td></tr><tr><td style="font-weight:bold;vertical-align:top;">httponly</td><td style="vertical-align:top;">:</td><td><div></div></td></tr><tr><td style="font-weight:bold;vertical-align:top;">max-age</td><td style="vertical-align:top;">:</td><td><div></div></td></tr><tr><td style="font-weight:bold;vertical-align:top;">path</td><td style="vertical-align:top;">:</td><td><div></div></td></tr><tr><td style="font-weight:bold;vertical-align:top;">secure</td><td style="vertical-align:top;">:</td><td><div></div></td></tr><tr><td style="font-weight:bold;vertical-align:top;">version</td><td style="vertical-align:top;">:</td><td><div></div></td></tr></table></div></td></tr><tr><td style="font-weight:bold;vertical-align:top;">session_id_sota</td><td style="vertical-align:top;">:</td><td><div>127.0.0.1-f8ea027b-ef47-4957-818d-d7014ed4ed54<table><tr><td style="font-weight:bold;vertical-align:top;">comment</td><td style="vertical-align:top;">:</td><td><div></div></td></tr><tr><td style="font-weight:bold;vertical-align:top;">domain</td><td style="vertical-align:top;">:</td><td><div></div></td></tr><tr><td style="font-weight:bold;vertical-align:top;">expires</td><td style="vertical-align:top;">:</td><td><div></div></td></tr><tr><td style="font-weight:bold;vertical-align:top;">httponly</td><td style="vertical-align:top;">:</td><td><div></div></td></tr><tr><td style="font-weight:bold;vertical-align:top;">max-age</td><td style="vertical-align:top;">:</td><td><div></div></td></tr><tr><td style="font-weight:bold;vertical-align:top;">path</td><td style="vertical-align:top;">:</td><td><div></div></td></tr><tr><td style="font-weight:bold;vertical-align:top;">secure</td><td style="vertical-align:top;">:</td><td><div></div></td></tr><tr><td style="font-weight:bold;vertical-align:top;">version</td><td style="vertical-align:top;">:</td><td><div></div></td></tr></table></div></td></tr><tr><td style="font-weight:bold;vertical-align:top;">session_id_welcome</td><td style="vertical-align:top;">:</td><td><div>127.0.0.1-7af1d569-a9c2-4bce-b2c4-85a0d30c1917<table><tr><td style="font-weight:bold;vertical-align:top;">comment</td><td style="vertical-align:top;">:</td><td><div></div></td></tr><tr><td style="font-weight:bold;vertical-align:top;">domain</td><td style="vertical-align:top;">:</td><td><div></div></td></tr><tr><td style="font-weight:bold;vertical-align:top;">expires</td><td style="vertical-align:top;">:</td><td><div></div></td></tr><tr><td style="font-weight:bold;vertical-align:top;">httponly</td><td style="vertical-align:top;">:</td><td><div></div></td></tr><tr><td style="font-weight:bold;vertical-align:top;">max-age</td><td style="vertical-align:top;">:</td><td><div></div></td></tr><tr><td style="font-weight:bold;vertical-align:top;">path</td><td style="vertical-align:top;">:</td><td><div></div></td></tr><tr><td style="font-weight:bold;vertical-align:top;">secure</td><td style="vertical-align:top;">:</td><td><div></div></td></tr><tr><td style="font-weight:bold;vertical-align:top;">version</td><td style="vertical-align:top;">:</td><td><div></div></td></tr></table></div></td></tr></table></div></td></tr><tr><td style="font-weight:bold;vertical-align:top;">env</td><td style="vertical-align:top;">:</td><td><div><table><tr><td style="font-weight:bold;vertical-align:top;">HTTPS</td><td style="vertical-align:top;">:</td><td><div>on</div></td></tr><tr><td style="font-weight:bold;vertical-align:top;">HTTP_ACCEPT</td><td style="vertical-align:top;">:</td><td><div>text/html,application/xhtml+xml,application/xml;q=0.9,*/*;q=0.8</div></td></tr><tr><td style="font-weight:bold;vertical-align:top;">HTTP_ACCEPT_ENCODING</td><td style="vertical-align:top;">:</td><td><div>gzip, deflate, br</div></td></tr><tr><td style="font-weight:bold;vertical-align:top;">HTTP_ACCEPT_LANGUAGE</td><td style="vertical-align:top;">:</td><td><div>en-US,en;q=0.5</div></td></tr><tr><td style="font-weight:bold;vertical-align:top;">HTTP_CONNECTION</td><td style="vertical-align:top;">:</td><td><div>keep-alive</div></td></tr><tr><td style="font-weight:bold;vertical-align:top;">HTTP_COOKIE</td><td style="vertical-align:top;">:</td><td><div>csrftoken=1IDx8BTnyy9FCtyjuOYxlnc3y9TqicAU; session_id_welcome=127.0.0.1-7af1d569-a9c2-4bce-b2c4-85a0d30c1917; session_id_admin=127.0.0.1-c4c8ced8-3841-4b52-a2f6-3b3f51bae063; session_id_sota=127.0.0.1-f8ea027b-ef47-4957-818d-d7014ed4ed54</div></td></tr><tr><td style="font-weight:bold;vertical-align:top;">HTTP_HOST</td><td style="vertical-align:top;">:</td><td><div>127.0.0.1:8000</div></td></tr><tr><td style="font-weight:bold;vertical-align:top;">HTTP_UPGRADE_INSECURE_REQUESTS</td><td style="vertical-align:top;">:</td><td><div>1</div></td></tr><tr><td style="font-weight:bold;vertical-align:top;">HTTP_USER_AGENT</td><td style="vertical-align:top;">:</td><td><div>Mozilla/5.0 (Macintosh; Intel Mac OS X 10.10; rv:50.0) Gecko/20100101 Firefox/50.0</div></td></tr><tr><td style="font-weight:bold;vertical-align:top;">PATH_INFO</td><td style="vertical-align:top;">:</td><td><div>/</div></td></tr><tr><td style="font-weight:bold;vertical-align:top;">QUERY_STRING</td><td style="vertical-align:top;">:</td><td><div></div></td></tr><tr><td style="font-weight:bold;vertical-align:top;">REMOTE_ADDR</td><td style="vertical-align:top;">:</td><td><div>127.0.0.1</div></td></tr><tr><td style="font-weight:bold;vertical-align:top;">REMOTE_PORT</td><td style="vertical-align:top;">:</td><td><div>53109</div></td></tr><tr><td style="font-weight:bold;vertical-align:top;">REQUEST_METHOD</td><td style="vertical-align:top;">:</td><td><div>GET</div></td></tr><tr><td style="font-weight:bold;vertical-align:top;">SCRIPT_NAME</td><td style="vertical-align:top;">:</td><td><div></div></td></tr><tr><td style="font-weight:bold;vertical-align:top;">SERVER_NAME</td><td style="vertical-align:top;">:</td><td><div>eacain</div></td></tr><tr><td style="font-weight:bold;vertical-align:top;">SERVER_PORT</td><td style="vertical-align:top;">:</td><td><div>8000</div></td></tr><tr><td style="font-weight:bold;vertical-align:top;">SERVER_PROTOCOL</td><td style="vertical-align:top;">:</td><td><div>HTTP/1.1</div></td></tr><tr><td style="font-weight:bold;vertical-align:top;">SERVER_SOFTWARE</td><td style="vertical-align:top;">:</td><td><div>Rocket 1.2.6</div></td></tr><tr><td style="font-weight:bold;vertical-align:top;">SSL_CLIENT_RAW_CERT</td><td style="vertical-align:top;">:</td><td><div>None</div></td></tr><tr><td style="font-weight:bold;vertical-align:top;">app_folders</td><td style="vertical-align:top;">:</td><td><div>set([&#x27;/Users/ecain/Projects/SOTA/web2py/applications/SOTA/&#x27;])</div></td></tr><tr><td style="font-weight:bold;vertical-align:top;">applications_parent</td><td style="vertical-align:top;">:</td><td><div>/Users/ecain/Projects/SOTA/web2py</div></td></tr><tr><td style="font-weight:bold;vertical-align:top;">cmd_args</td><td style="vertical-align:top;">:</td><td><div><table></table></div></td></tr><tr><td style="font-weight:bold;vertical-align:top;">cmd_options</td><td style="vertical-align:top;">:</td><td><div>&lt;Values at 0x10e364050: {&#x27;verbose&#x27;: False, &#x27;ip&#x27;: &#x27;0.0.0.0&#x27;, &#x27;debuglevel&#x27;: 30, &#x27;with_scheduler&#x27;: False, &#x27;shutdown_timeout&#x27;: 5, &#x27;taskbar&#x27;: False, &#x27;with_coverage&#x27;: False, &#x27;pid_filename&#x27;: &#x27;httpserver.pid&#x27;, &#x27;maxthreads&#x27;: None, &#x27;softcron&#x27;: False, &#x27;server_name&#x27;: &#x27;eacain&#x27;, &#x27;bpython&#x27;: False, &#x27;nogui&#x27;: False, &#x27;port&#x27;: 8000, &#x27;print_errors&#x27;: False, &#x27;extcron&#x27;: False, &#x27;runcron&#x27;: False, &#x27;run_system_tests&#x27;: False, &#x27;test&#x27;: None, &#x27;folder&#x27;: &#x27;/Users/ecain/Projects/SOTA/web2py&#x27;, &#x27;config&#x27;: &#x27;&#x27;, &#x27;minthreads&#x27;: None, &#x27;shell&#x27;: None, &#x27;run&#x27;: &#x27;&#x27;, &#x27;log_filename&#x27;: &#x27;httpserver.log&#x27;, &#x27;profiler_dir&#x27;: None, &#x27;args&#x27;: [&#x27;&#x27;], &#x27;socket_timeout&#x27;: 5, &#x27;ssl_ca_certificate&#x27;: None, &#x27;scheduler&#x27;: None, &#x27;interfaces&#x27;: None, &#x27;ssl_private_key&#x27;: &#x27;server.key&#x27;, &#x27;gae&#x27;: None, &#x27;password&#x27;: &#x27;******&#x27;, &#x27;request_queue_size&#x27;: 5, &#x27;ssl_certificate&#x27;: &#x27;server.crt&#x27;, &#x27;cronjob&#x27;: False, &#x27;numthreads&#x27;: None, &#x27;quiet&#x27;: False, &#x27;import_models&#x27;: False, &#x27;timeout&#x27;: 10, &#x27;plain&#x27;: False, &#x27;nobanner&#x27;: False}&gt;</div></td></tr><tr><td style="font-weight:bold;vertical-align:top;">db_sessions</td><td style="vertical-align:top;">:</td><td><div>set([])</div></td></tr><tr><td style="font-weight:bold;vertical-align:top;">debugging</td><td style="vertical-align:top;">:</td><td><div>False</div></td></tr><tr><td style="font-weight:bold;vertical-align:top;">gluon_parent</td><td style="vertical-align:top;">:</td><td><div>/Users/ecain/Projects/SOTA/web2py</div></td></tr><tr><td style="font-weight:bold;vertical-align:top;">http_accept</td><td style="vertical-align:top;">:</td><td><div>text/html,application/xhtml+xml,application/xml;q=0.9,*/*;q=0.8</div></td></tr><tr><td style="font-weight:bold;vertical-align:top;">http_accept_encoding</td><td style="vertical-align:top;">:</td><td><div>gzip, deflate, br</div></td></tr><tr><td style="font-weight:bold;vertical-align:top;">http_accept_language</td><td style="vertical-align:top;">:</td><td><div>en-US,en;q=0.5</div></td></tr><tr><td style="font-weight:bold;vertical-align:top;">http_connection</td><td style="vertical-align:top;">:</td><td><div>keep-alive</div></td></tr><tr><td style="font-weight:bold;vertical-align:top;">http_cookie</td><td style="vertical-align:top;">:</td><td><div>csrftoken=1IDx8BTnyy9FCtyjuOYxlnc3y9TqicAU; session_id_welcome=127.0.0.1-7af1d569-a9c2-4bce-b2c4-85a0d30c1917; session_id_admin=127.0.0.1-c4c8ced8-3841-4b52-a2f6-3b3f51bae063; session_id_sota=127.0.0.1-f8ea027b-ef47-4957-818d-d7014ed4ed54</div></td></tr><tr><td style="font-weight:bold;vertical-align:top;">http_host</td><td style="vertical-align:top;">:</td><td><div>127.0.0.1:8000</div></td></tr><tr><td style="font-weight:bold;vertical-align:top;">http_upgrade_insecure_requests</td><td style="vertical-align:top;">:</td><td><div>1</div></td></tr><tr><td style="font-weight:bold;vertical-align:top;">http_user_agent</td><td style="vertical-align:top;">:</td><td><div>Mozilla/5.0 (Macintosh; Intel Mac OS X 10.10; rv:50.0) Gecko/20100101 Firefox/50.0</div></td></tr><tr><td style="font-weight:bold;vertical-align:top;">https</td><td style="vertical-align:top;">:</td><td><div>on</div></td></tr><tr><td style="font-weight:bold;vertical-align:top;">is_jython</td><td style="vertical-align:top;">:</td><td><div>False</div></td></tr><tr><td style="font-weight:bold;vertical-align:top;">is_py2</td><td style="vertical-align:top;">:</td><td><div>True</div></td></tr><tr><td style="font-weight:bold;vertical-align:top;">is_pypy</td><td style="vertical-align:top;">:</td><td><div>False</div></td></tr><tr><td style="font-weight:bold;vertical-align:top;">is_source</td><td style="vertical-align:top;">:</td><td><div>True</div></td></tr><tr><td style="font-weight:bold;vertical-align:top;">path_info</td><td style="vertical-align:top;">:</td><td><div>/</div></td></tr><tr><td style="font-weight:bold;vertical-align:top;">query_string</td><td style="vertical-align:top;">:</td><td><div></div></td></tr><tr><td style="font-weight:bold;vertical-align:top;">remote_addr</td><td style="vertical-align:top;">:</td><td><div>127.0.0.1</div></td></tr><tr><td style="font-weight:bold;vertical-align:top;">remote_port</td><td style="vertical-align:top;">:</td><td><div>53109</div></td></tr><tr><td style="font-weight:bold;vertical-align:top;">request_method</td><td style="vertical-align:top;">:</td><td><div>GET</div></td></tr><tr><td style="font-weight:bold;vertical-align:top;">request_uri</td><td style="vertical-align:top;">:</td><td><div>/</div></td></tr><tr><td style="font-weight:bold;vertical-align:top;">script_name</td><td style="vertical-align:top;">:</td><td><div></div></td></tr><tr><td style="font-weight:bold;vertical-align:top;">server_name</td><td style="vertical-align:top;">:</td><td><div>eacain</div></td></tr><tr><td style="font-weight:bold;vertical-align:top;">server_port</td><td style="vertical-align:top;">:</td><td><div>8000</div></td></tr><tr><td style="font-weight:bold;vertical-align:top;">server_protocol</td><td style="vertical-align:top;">:</td><td><div>HTTP/1.1</div></td></tr><tr><td style="font-weight:bold;vertical-align:top;">server_software</td><td style="vertical-align:top;">:</td><td><div>Rocket 1.2.6</div></td></tr><tr><td style="font-weight:bold;vertical-align:top;">ssl_client_raw_cert</td><td style="vertical-align:top;">:</td><td><div>None</div></td></tr><tr><td style="font-weight:bold;vertical-align:top;">web2py_path</td><td style="vertical-align:top;">:</td><td><div>/Users/ecain/Projects/SOTA/web2py</div></td></tr><tr><td style="font-weight:bold;vertical-align:top;">web2py_version</td><td style="vertical-align:top;">:</td><td><div>2.14.6-stable+timestamp.2016.05.09.19.18.48</div></td></tr><tr><td style="font-weight:bold;vertical-align:top;">wsgi.errors</td><td style="vertical-align:top;">:</td><td><div>&lt;open file &#x27;&lt;stderr&gt;&#x27;, mode &#x27;w&#x27; at 0x10cf211e0&gt;</div></td></tr><tr><td style="font-weight:bold;vertical-align:top;">wsgi.file_wrapper</td><td style="vertical-align:top;">:</td><td><div>&lt;class wsgiref.util.FileWrapper at 0x10e303e20&gt;</div></td></tr><tr><td style="font-weight:bold;vertical-align:top;">wsgi.input</td><td style="vertical-align:top;">:</td><td><div>&lt;socket._fileobject object at 0x10df2c850&gt;</div></td></tr><tr><td style="font-weight:bold;vertical-align:top;">wsgi.multiprocess</td><td style="vertical-align:top;">:</td><td><div>False</div></td></tr><tr><td style="font-weight:bold;vertical-align:top;">wsgi.multithread</td><td style="vertical-align:top;">:</td><td><div>True</div></td></tr><tr><td style="font-weight:bold;vertical-align:top;">wsgi.run_once</td><td style="vertical-align:top;">:</td><td><div>False</div></td></tr><tr><td style="font-weight:bold;vertical-align:top;">wsgi.url_scheme</td><td style="vertical-align:top;">:</td><td><div>https</div></td></tr><tr><td style="font-weight:bold;vertical-align:top;">wsgi.version</td><td style="vertical-align:top;">:</td><td><div><table><tr><td><div>1</div></td></tr><tr><td><div>0</div></td></tr></table></div></td></tr><tr><td style="font-weight:bold;vertical-align:top;">wsgi_errors</td><td style="vertical-align:top;">:</td><td><div>&lt;open file &#x27;&lt;stderr&gt;&#x27;, mode &#x27;w&#x27; at 0x10cf211e0&gt;</div></td></tr><tr><td style="font-weight:bold;vertical-align:top;">wsgi_file_wrapper</td><td style="vertical-align:top;">:</td><td><div>&lt;class wsgiref.util.FileWrapper at 0x10e303e20&gt;</div></td></tr><tr><td style="font-weight:bold;vertical-align:top;">wsgi_input</td><td style="vertical-align:top;">:</td><td><div>&lt;socket._fileobject object at 0x10df2c850&gt;</div></td></tr><tr><td style="font-weight:bold;vertical-align:top;">wsgi_multiprocess</td><td style="vertical-align:top;">:</td><td><div>False</div></td></tr><tr><td style="font-weight:bold;vertical-align:top;">wsgi_multithread</td><td style="vertical-align:top;">:</td><td><div>True</div></td></tr><tr><td style="font-weight:bold;vertical-align:top;">wsgi_run_once</td><td style="vertical-align:top;">:</td><td><div>False</div></td></tr><tr><td style="font-weight:bold;vertical-align:top;">wsgi_url_scheme</td><td style="vertical-align:top;">:</td><td><div>https</div></td></tr><tr><td style="font-weight:bold;vertical-align:top;">wsgi_version</td><td style="vertical-align:top;">:</td><td><div><table><tr><td><div>1</div></td></tr><tr><td><div>0</div></td></tr></table></div></td></tr></table></div></td></tr><tr><td style="font-weight:bold;vertical-align:top;">extension</td><td style="vertical-align:top;">:</td><td><div>html</div></td></tr><tr><td style="font-weight:bold;vertical-align:top;">folder</td><td style="vertical-align:top;">:</td><td><div>/Users/ecain/Projects/SOTA/web2py/applications/SOTA/</div></td></tr><tr><td style="font-weight:bold;vertical-align:top;">function</td><td style="vertical-align:top;">:</td><td><div>index</div></td></tr><tr><td style="font-weight:bold;vertical-align:top;">global_settings</td><td style="vertical-align:top;">:</td><td><div><table><tr><td style="font-weight:bold;vertical-align:top;">app_folders</td><td style="vertical-align:top;">:</td><td><div>set([&#x27;/Users/ecain/Projects/SOTA/web2py/applications/SOTA/&#x27;])</div></td></tr><tr><td style="font-weight:bold;vertical-align:top;">applications_parent</td><td style="vertical-align:top;">:</td><td><div>/Users/ecain/Projects/SOTA/web2py</div></td></tr><tr><td style="font-weight:bold;vertical-align:top;">cmd_args</td><td style="vertical-align:top;">:</td><td><div><table></table></div></td></tr><tr><td style="font-weight:bold;vertical-align:top;">cmd_options</td><td style="vertical-align:top;">:</td><td><div>&lt;Values at 0x10e364050: {&#x27;verbose&#x27;: False, &#x27;ip&#x27;: &#x27;0.0.0.0&#x27;, &#x27;debuglevel&#x27;: 30, &#x27;with_scheduler&#x27;: False, &#x27;shutdown_timeout&#x27;: 5, &#x27;taskbar&#x27;: False, &#x27;with_coverage&#x27;: False, &#x27;pid_filename&#x27;: &#x27;httpserver.pid&#x27;, &#x27;maxthreads&#x27;: None, &#x27;softcron&#x27;: False, &#x27;server_name&#x27;: &#x27;eacain&#x27;, &#x27;bpython&#x27;: False, &#x27;nogui&#x27;: False, &#x27;port&#x27;: 8000, &#x27;print_errors&#x27;: False, &#x27;extcron&#x27;: False, &#x27;runcron&#x27;: False, &#x27;run_system_tests&#x27;: False, &#x27;test&#x27;: None, &#x27;folder&#x27;: &#x27;/Users/ecain/Projects/SOTA/web2py&#x27;, &#x27;config&#x27;: &#x27;&#x27;, &#x27;minthreads&#x27;: None, &#x27;shell&#x27;: None, &#x27;run&#x27;: &#x27;&#x27;, &#x27;log_filename&#x27;: &#x27;httpserver.log&#x27;, &#x27;profiler_dir&#x27;: None, &#x27;args&#x27;: [&#x27;&#x27;], &#x27;socket_timeout&#x27;: 5, &#x27;ssl_ca_certificate&#x27;: None, &#x27;scheduler&#x27;: None, &#x27;interfaces&#x27;: None, &#x27;ssl_private_key&#x27;: &#x27;server.key&#x27;, &#x27;gae&#x27;: None, &#x27;password&#x27;: &#x27;******&#x27;, &#x27;request_queue_size&#x27;: 5, &#x27;ssl_certificate&#x27;: &#x27;server.crt&#x27;, &#x27;cronjob&#x27;: False, &#x27;numthreads&#x27;: None, &#x27;quiet&#x27;: False, &#x27;import_models&#x27;: False, &#x27;timeout&#x27;: 10, &#x27;plain&#x27;: False, &#x27;nobanner&#x27;: False}&gt;</div></td></tr><tr><td style="font-weight:bold;vertical-align:top;">db_sessions</td><td style="vertical-align:top;">:</td><td><div>set([])</div></td></tr><tr><td style="font-weight:bold;vertical-align:top;">debugging</td><td style="vertical-align:top;">:</td><td><div>False</div></td></tr><tr><td style="font-weight:bold;vertical-align:top;">gluon_parent</td><td style="vertical-align:top;">:</td><td><div>/Users/ecain/Projects/SOTA/web2py</div></td></tr><tr><td style="font-weight:bold;vertical-align:top;">is_jython</td><td style="vertical-align:top;">:</td><td><div>False</div></td></tr><tr><td style="font-weight:bold;vertical-align:top;">is_py2</td><td style="vertical-align:top;">:</td><td><div>True</div></td></tr><tr><td style="font-weight:bold;vertical-align:top;">is_pypy</td><td style="vertical-align:top;">:</td><td><div>False</div></td></tr><tr><td style="font-weight:bold;vertical-align:top;">is_source</td><td style="vertical-align:top;">:</td><td><div>True</div></td></tr><tr><td style="font-weight:bold;vertical-align:top;">local_hosts</td><td style="vertical-align:top;">:</td><td><div><table><tr><td><div>::1</div></td></tr><tr><td><div>::ffff:127.0.0.1</div></td></tr><tr><td><div>127.0.0.1</div></td></tr><tr><td><div>eacain</div></td></tr></table></div></td></tr><tr><td style="font-weight:bold;vertical-align:top;">web2py_version</td><td style="vertical-align:top;">:</td><td><div>2.14.6-stable+timestamp.2016.05.09.19.18.48</div></td></tr></table></div></td></tr><tr><td style="font-weight:bold;vertical-align:top;">is_https</td><td style="vertical-align:top;">:</td><td><div>True</div></td></tr><tr><td style="font-weight:bold;vertical-align:top;">is_local</td><td style="vertical-align:top;">:</td><td><div>True</div></td></tr><tr><td style="font-weight:bold;vertical-align:top;">is_restful</td><td style="vertical-align:top;">:</td><td><div>False</div></td></tr><tr><td style="font-weight:bold;vertical-align:top;">is_scheduler</td><td style="vertical-align:top;">:</td><td><div>False</div></td></tr><tr><td style="font-weight:bold;vertical-align:top;">is_shell</td><td style="vertical-align:top;">:</td><td><div>False</div></td></tr><tr><td style="font-weight:bold;vertical-align:top;">now</td><td style="vertical-align:top;">:</td><td><div>datetime.datetime(2016, 12, 13, 18, 26, 24, 500434)</div></td></tr><tr><td style="font-weight:bold;vertical-align:top;">raw_args</td><td style="vertical-align:top;">:</td><td><div></div></td></tr><tr><td style="font-weight:bold;vertical-align:top;">raw_extension</td><td style="vertical-align:top;">:</td><td><div>None</div></td></tr><tr><td style="font-weight:bold;vertical-align:top;">url</td><td style="vertical-align:top;">:</td><td><div>/</div></td></tr><tr><td style="font-weight:bold;vertical-align:top;">utcnow</td><td style="vertical-align:top;">:</td><td><div>datetime.datetime(2016, 12, 14, 0, 26, 24, 500448)</div></td></tr><tr><td style="font-weight:bold;vertical-align:top;">wsgi</td><td style="vertical-align:top;">:</td><td><div>&lt;gluon.main.LazyWSGI object at 0x10e386410&gt;</div></td></tr></table></div>'
tRp64
sS'frames'
p65
(lp66
(dp67
S'file'
p68
S'/Users/ecain/Projects/SOTA/web2py/gluon/restricted.py'
p69
sS'dump'
p70
(dp71
S'environment'
p72
S"{'A': <class 'gluon.html.A'>, 'ANY_OF': <class 'gluon.validators.ANY_OF'>, 'ASSIGNJS': <function ASSIGNJS>, 'AppConfig': <function AppConfig>, 'Auth': <class 'gluon.tools.Auth'>, 'B': <class 'gluon.html.B'>, 'BEAUTIFY': <class 'gluon.html.BEAUTIFY'>, 'BODY': <class 'gluon.html.BODY'>, 'BR': <class 'gluon.html.BR'>, 'BUTTON': <class 'gluon.html.BUTTON'>, ...}"
p73
sS'ccode'
p74
S'<code object <module> at 0x112438b30, file "/Use...A/web2py/applications/SOTA/models/db.py", line 8>'
p75
ssS'lnum'
p76
I216
sS'lines'
p77
(dp78
I211
S'    if environment is None:'
p79
sI212
S'        environment = {}'
p80
sI213
S"    environment['__file__'] = layer"
p81
sI214
S"    environment['__name__'] = '__restricted__'"
p82
sI215
S'    try:'
p83
sI216
S'        exec(ccode, environment)'
p84
sI217
S'    except HTTP:'
p85
sI218
S'        raise'
p86
sI219
S'    except RestrictedError:'
p87
sI220
S'        # do not encapsulate (obfuscate) the original RestrictedError'
p88
ssS'call'
p89
S'(ccode=<code object <module> at 0x112438b30, file "/Use...A/web2py/applications/SOTA/models/db.py", line 8>, environment={\'A\': <class \'gluon.html.A\'>, \'ANY_OF\': <class \'gluon.validators.ANY_OF\'>, \'ASSIGNJS\': <function ASSIGNJS>, \'AppConfig\': <function AppConfig>, \'Auth\': <class \'gluon.tools.Auth\'>, \'B\': <class \'gluon.html.B\'>, \'BEAUTIFY\': <class \'gluon.html.BEAUTIFY\'>, \'BODY\': <class \'gluon.html.BODY\'>, \'BR\': <class \'gluon.html.BR\'>, \'BUTTON\': <class \'gluon.html.BUTTON\'>, ...}, layer=\'/Users/ecain/Projects/SOTA/web2py/applications/SOTA/models/db.py\')'
p90
sS'func'
p91
S'restricted'
p92
sa(dp93
g68
S'/Users/ecain/Projects/SOTA/web2py/applications/SOTA/models/db.py'
p94
sg70
(dp95
S'username'
p96
S'undefined'
p97
sS'auth.define_tables'
p98
S'<bound method Auth.define_tables of <gluon.tools.Auth object>>'
p99
sS'builtinTrue'
p100
S'True'
p101
sS'auth'
p102
S'<gluon.tools.Auth object>'
p103
sS'signature'
p104
g97
ssg76
I94
sg77
(dp105
I96
S'# -------------------------------------------------------------------------'
p106
sI97
S'# configure email'
p107
sI98
S'# -------------------------------------------------------------------------'
p108
sI89
S'plugins = PluginManager()'
p109
sI90
S''
sI91
S'# -------------------------------------------------------------------------'
p110
sI92
S'# create all tables needed by auth if not custom tables'
p111
sI93
S'# -------------------------------------------------------------------------'
p112
sI94
S'auth.define_tables(username=True, signature=True)'
p113
sI95
S''
ssg89
S'()'
p114
sg91
S'<module>'
p115
sa(dp116
g68
S'/Users/ecain/Projects/SOTA/web2py/gluon/tools.py'
p117
sg70
(dp118
S'builtinformat'
p119
S'<built-in function format>'
p120
ssg76
I2409
sg77
(dp121
I2404
S'                    *extra_fields,'
p122
sI2405
S'                    **dict('
p123
sI2406
S'                        migrate=self.__get_migrate(settings.table_user_name,'
p124
sI2407
S'                                                   migrate),'
p125
sI2408
S'                        fake_migrate=fake_migrate,'
p126
sI2409
S"                        format='%(username)s'))"
p127
sI2410
S'            else:'
p128
sI2411
S'                db.define_table('
p129
sI2412
S'                    settings.table_user_name,'
p130
sI2413
S"                    Field('first_name', length=128, default='',"
p131
ssg89
S'(self=<gluon.tools.Auth object>, username=True, signature=True, enable_tokens=False, migrate=True, fake_migrate=False)'
p132
sg91
S'define_tables'
p133
sa(dp134
g68
S'/usr/local/lib/python2.7/site-packages/pydal/base.py'
p135
sg70
(dp136
S'fields'
p137
S'(<pydal.objects.Field object>, <pydal.objects.Field object>, <pydal.objects.Field object>, <pydal.objects.Field object>, <pydal.objects.Field object>, <pydal.objects.Field object>, <pydal.objects.Field object>, <pydal.objects.Field object>, <Table auth_signature (id, is_active, created_on, created_by, modified_on, modified_by)>)'
p138
sS'self'
p139
S'<DAL uri="sqlite://storage.sqlite">'
p140
sS'args'
p141
S"{'fake_migrate': False, 'format': '%(username)s', 'migrate': True}"
p142
sS'tablename'
p143
S"'auth_user'"
p144
sS'table'
p145
g97
sS'self.lazy_define_table'
p146
S'<bound method DAL.lazy_define_table of <DAL uri="sqlite://storage.sqlite">>'
p147
ssg76
I587
sg77
(dp148
I582
S'                                  (tablename, invalid_args))'
p149
sI583
S'        if self._lazy_tables and tablename not in self._LAZY_TABLES:'
p150
sI584
S'            self._LAZY_TABLES[tablename] = (tablename, fields, args)'
p151
sI585
S'            table = None'
p152
sI586
S'        else:'
p153
sI587
S'            table = self.lazy_define_table(tablename, *fields, **args)'
p154
sI588
S'        if tablename not in self.tables:'
p155
sI589
S'            self.tables.append(tablename)'
p156
sI590
S'        return table'
p157
sI591
S''
ssg89
S'(self=<DAL uri="sqlite://storage.sqlite">, tablename=\'auth_user\', *fields=(<pydal.objects.Field object>, <pydal.objects.Field object>, <pydal.objects.Field object>, <pydal.objects.Field object>, <pydal.objects.Field object>, <pydal.objects.Field object>, <pydal.objects.Field object>, <pydal.objects.Field object>, <Table auth_signature (id, is_active, created_on, created_by, modified_on, modified_by)>), **args={\'fake_migrate\': False, \'format\': \'%(username)s\', \'migrate\': True})'
p158
sg91
S'define_table'
p159
sa(dp160
g68
S'/usr/local/lib/python2.7/site-packages/pydal/base.py'
p161
sg70
(dp162
S'polymodel'
p163
S'None'
p164
ssg76
I621
sg77
(dp165
I616
S'            try:'
p166
sI617
S'                GLOBAL_LOCKER.acquire()'
p167
sI618
S'                self._adapter.create_table('
p168
sI619
S'                    table, migrate=migrate,'
p169
sI620
S'                    fake_migrate=fake_migrate,'
p170
sI621
S'                    polymodel=polymodel)'
p171
sI622
S'            finally:'
p172
sI623
S'                GLOBAL_LOCKER.release()'
p173
sI624
S'        else:'
p174
sI625
S'            table._dbt = None'
p175
ssg89
S'(self=<DAL uri="sqlite://storage.sqlite">, tablename=\'auth_user\', *fields=(<pydal.objects.Field object>, <pydal.objects.Field object>, <pydal.objects.Field object>, <pydal.objects.Field object>, <pydal.objects.Field object>, <pydal.objects.Field object>, <pydal.objects.Field object>, <pydal.objects.Field object>, <Table auth_signature (id, is_active, created_on, created_by, modified_on, modified_by)>), **args={\'fake_migrate\': False, \'format\': \'%(username)s\', \'migrate\': True})'
p176
sg91
S'lazy_define_table'
p177
sa(dp178
g68
S'/usr/local/lib/python2.7/site-packages/pydal/adapters/base.py'
p179
sg70
(dp180
S'self'
p181
S'<pydal.adapters.sqlite.SQLite object>'
p182
sS'args'
p183
S'(<Table auth_user (id, first_name, last_name, ema...reated_on, created_by, modified_on, modified_by)>,)'
p184
sS'self.migrator'
p185
S'<pydal.migrator.Migrator object>'
p186
sS'self.migrator.create_table'
p187
S'<bound method Migrator.create_table of <pydal.migrator.Migrator object>>'
p188
sS'kwargs'
p189
S"{'fake_migrate': False, 'migrate': True, 'polymodel': None}"
p190
ssg76
I778
sg77
(dp191
I773
S''
sI774
S'    def bulk_insert(self, table, items):'
p192
sI775
S'        return [self.insert(table, item) for item in items]'
p193
sI776
S''
sI777
S'    def create_table(self, *args, **kwargs):'
p194
sI778
S'        return self.migrator.create_table(*args, **kwargs)'
p195
sI779
S''
sI780
S'    def _drop_table_cleanup(self, table):'
p196
sI781
S'        super(SQLAdapter, self)._drop_table_cleanup(table)'
p197
sI782
S'        if table._dbt:'
p198
ssg89
S"(self=<pydal.adapters.sqlite.SQLite object>, *args=(<Table auth_user (id, first_name, last_name, ema...reated_on, created_by, modified_on, modified_by)>,), **kwargs={'fake_migrate': False, 'migrate': True, 'polymodel': None})"
p199
sg91
S'create_table'
p200
sa(dp201
g68
S'/usr/local/lib/python2.7/site-packages/pydal/migrator.py'
p202
sg70
(dp203
S'query'
p204
S'\'CREATE TABLE "auth_user"(\\n    "id" INTEGER PRIMA...ERENCES "auth_user" ("id") ON DELETE CASCADE  \\n);\''
p205
sS'self'
p206
S'<pydal.migrator.Migrator object>'
p207
sS'self.adapter'
p208
S'<pydal.adapters.sqlite.SQLite object>'
p209
sS'self.adapter.create_sequence_and_triggers'
p210
S'<bound method SQLite.create_sequence_and_triggers of <pydal.adapters.sqlite.SQLite object>>'
p211
sS'table'
p212
S'<Table auth_user (id, first_name, last_name, ema...reated_on, created_by, modified_on, modified_by)>'
p213
ssg76
I269
sg77
(dp214
I264
S'            if table._dbt:'
p215
sI265
S"                self.log('timestamp: %s\\n%s\\n'"
p216
sI266
S'                         % (datetime.datetime.today().isoformat(),'
p217
sI267
S'                            query), table)'
p218
sI268
S'            if not fake_migrate:'
p219
sI269
S'                self.adapter.create_sequence_and_triggers(query, table)'
p220
sI270
S'                db.commit()'
p221
sI271
S'                # Postgres geom fields are added now,'
p222
sI272
S'                # after the table has been created'
p223
sI273
S'                for query in postcreation_fields:'
p224
ssg89
S'(self=<pydal.migrator.Migrator object>, table=<Table auth_user (id, first_name, last_name, ema...reated_on, created_by, modified_on, modified_by)>, migrate=True, fake_migrate=False, polymodel=None)'
p225
sg91
g200
sa(dp226
g68
S'/usr/local/lib/python2.7/site-packages/pydal/adapters/base.py'
p227
sg70
(dp228
S'query'
p229
S'\'CREATE TABLE "auth_user"(\\n    "id" INTEGER PRIMA...ERENCES "auth_user" ("id") ON DELETE CASCADE  \\n);\''
p230
sS'self'
p231
S'<pydal.adapters.sqlite.SQLite object>'
p232
sS'self.execute'
p233
S'<bound method SQLite.wrap of <pydal.adapters.sqlite.SQLite object>>'
p234
ssg76
I861
sg77
(dp235
I864
S'        if original_tablename is not None:'
p236
sI865
S'            return self.dialect.alias(original_tablename, tablename)'
p237
sI856
S'    @with_connection'
p238
sI857
S'    def rollback_prepared(self, key):'
p239
sI858
S'        self.connection.rollback()'
p240
sI859
S''
sI860
S'    def create_sequence_and_triggers(self, query, table, **args):'
p241
sI861
S'        self.execute(query)'
p242
sI862
S''
sI863
S'    def sqlsafe_table(self, tablename, original_tablename=None):'
p243
ssg89
S'(self=<pydal.adapters.sqlite.SQLite object>, query=\'CREATE TABLE "auth_user"(\\n    "id" INTEGER PRIMA...ERENCES "auth_user" ("id") ON DELETE CASCADE  \\n);\', table=<Table auth_user (id, first_name, last_name, ema...reated_on, created_by, modified_on, modified_by)>, **args={})'
p244
sg91
S'create_sequence_and_triggers'
p245
sa(dp246
g68
S'/usr/local/lib/python2.7/site-packages/pydal/adapters/__init__.py'
p247
sg70
(dp248
S'kwargs'
p249
g21
sS'args'
p250
S'(<pydal.adapters.sqlite.SQLite object>, \'CREATE TABLE "auth_user"(\\n    "id" INTEGER PRIMA...ERENCES "auth_user" ("id") ON DELETE CASCADE  \\n);\')'
p251
sS'f'
S'<function execute>'
p252
ssg76
I67
sg77
(dp253
I64
S'            if len(args) > 1:'
p254
sI65
S'                raise ValueError(args[1])'
p255
sI66
S"            raise RuntimeError('no connection available')"
p256
sI67
S'        return f(*args, **kwargs)'
p257
sI68
S'    return wrap'
p258
sI69
S''
sI70
S''
sI71
S'from .base import SQLAdapter, NoSQLAdapter'
p259
sI62
S'    def wrap(*args, **kwargs):'
p260
sI63
S'        if not args[0].connection:'
p261
ssg89
S'(*args=(<pydal.adapters.sqlite.SQLite object>, \'CREATE TABLE "auth_user"(\\n    "id" INTEGER PRIMA...ERENCES "auth_user" ("id") ON DELETE CASCADE  \\n);\'), **kwargs={})'
p262
sg91
S'wrap'
p263
sa(dp264
g68
S'/usr/local/lib/python2.7/site-packages/pydal/adapters/base.py'
p265
sg70
(dp266
S'rv'
p267
g97
sS'self'
p268
S'<pydal.adapters.sqlite.SQLite object>'
p269
sS'args'
p270
S'(\'CREATE TABLE "auth_user"(\\n    "id" INTEGER PRIMA...ERENCES "auth_user" ("id") ON DELETE CASCADE  \\n);\',)'
p271
sS'self.cursor'
p272
S'<sqlite3.Cursor object>'
p273
sS'command'
p274
S'\'CREATE TABLE "auth_user"(\\n    "id" INTEGER PRIMA...ERENCES "auth_user" ("id") ON DELETE CASCADE  \\n);\''
p275
sS'self.cursor.execute'
p276
S'<built-in method execute of sqlite3.Cursor object>'
p277
sS'kwargs'
p278
g21
ssg76
I416
sg77
(dp279
I416
S'        rv = self.cursor.execute(command, *args[1:], **kwargs)'
p280
sI417
S'        for handler in handlers:'
p281
sI418
S'            handler.after_execute(command)'
p282
sI419
S'        return rv'
p283
sI420
S''
sI411
S'    def execute(self, *args, **kwargs):'
p284
sI412
S'        command = self.filter_sql_command(args[0])'
p285
sI413
S'        handlers = self._build_handlers_for_execution()'
p286
sI414
S'        for handler in handlers:'
p287
sI415
S'            handler.before_execute(command)'
p288
ssg89
S'(self=<pydal.adapters.sqlite.SQLite object>, *args=(\'CREATE TABLE "auth_user"(\\n    "id" INTEGER PRIMA...ERENCES "auth_user" ("id") ON DELETE CASCADE  \\n);\',), **kwargs={})'
p289
sg91
S'execute'
p290
sasS'pyver'
p291
S'Python 2.7.11: /usr/local/opt/python/bin/python2.7 (prefix: /usr/local/Cellar/python/2.7.11/Frameworks/Python.framework/Versions/2.7)'
p292
sS'session'
p293
g63
(S'sb\x0c\x00\x00<div><table><tr><td style="font-weight:bold;vertical-align:top;">auth</td><td style="vertical-align:top;">:</td><td><div><table><tr><td style="font-weight:bold;vertical-align:top;">expiration</td><td style="vertical-align:top;">:</td><td><div>3600</div></td></tr><tr><td style="font-weight:bold;vertical-align:top;">hmac_key</td><td style="vertical-align:top;">:</td><td><div>b93377d3-ce43-4ef7-a613-900db3b8c876</div></td></tr><tr><td style="font-weight:bold;vertical-align:top;">last_visit</td><td style="vertical-align:top;">:</td><td><div>datetime.datetime(2016, 12, 13, 18, 22, 37, 661025)</div></td></tr><tr><td style="font-weight:bold;vertical-align:top;">remember_me</td><td style="vertical-align:top;">:</td><td><div>False</div></td></tr><tr><td style="font-weight:bold;vertical-align:top;">user</td><td style="vertical-align:top;">:</td><td><div><table><tr><td style="font-weight:bold;vertical-align:top;">created_by</td><td style="vertical-align:top;">:</td><td><div>None</div></td></tr><tr><td style="font-weight:bold;vertical-align:top;">created_on</td><td style="vertical-align:top;">:</td><td><div>datetime.datetime(2016, 12, 9, 9, 49, 31)</div></td></tr><tr><td style="font-weight:bold;vertical-align:top;">email</td><td style="vertical-align:top;">:</td><td><div>supplier1@gmail.com</div></td></tr><tr><td style="font-weight:bold;vertical-align:top;">first_name</td><td style="vertical-align:top;">:</td><td><div>Supplier1</div></td></tr><tr><td style="font-weight:bold;vertical-align:top;">id</td><td style="vertical-align:top;">:</td><td><div>2L</div></td></tr><tr><td style="font-weight:bold;vertical-align:top;">is_active</td><td style="vertical-align:top;">:</td><td><div>True</div></td></tr><tr><td style="font-weight:bold;vertical-align:top;">last_name</td><td style="vertical-align:top;">:</td><td><div>1</div></td></tr><tr><td style="font-weight:bold;vertical-align:top;">modified_by</td><td style="vertical-align:top;">:</td><td><div>2L</div></td></tr><tr><td style="font-weight:bold;vertical-align:top;">modified_on</td><td style="vertical-align:top;">:</td><td><div>datetime.datetime(2016, 12, 9, 13, 29, 38)</div></td></tr><tr><td style="font-weight:bold;vertical-align:top;">registration_id</td><td style="vertical-align:top;">:</td><td><div></div></td></tr><tr><td style="font-weight:bold;vertical-align:top;">registration_key</td><td style="vertical-align:top;">:</td><td><div></div></td></tr><tr><td style="font-weight:bold;vertical-align:top;">reset_password_key</td><td style="vertical-align:top;">:</td><td><div></div></td></tr><tr><td style="font-weight:bold;vertical-align:top;">username</td><td style="vertical-align:top;">:</td><td><div>supplier1</div></td></tr></table></div></td></tr><tr><td style="font-weight:bold;vertical-align:top;">user_groups</td><td style="vertical-align:top;">:</td><td><div><table><tr><td style="font-weight:bold;vertical-align:top;">2</td><td style="vertical-align:top;">:</td><td><div>user_2</div></td></tr></table></div></td></tr></table></div></td></tr><tr><td style="font-weight:bold;vertical-align:top;">flash</td><td style="vertical-align:top;">:</td><td><div>None</div></td></tr></table></div>'
tRp294
sS'etype'
p295
S"<class 'sqlite3.OperationalError'>"
p296
sS'date'
p297
S'Tue Dec 13 18:26:24 2016'
p298
sS'response'
p299
g63
(S'sh\x17\x00\x00<div><table><tr><td style="font-weight:bold;vertical-align:top;">body</td><td style="vertical-align:top;">:</td><td><div>&lt;cStringIO.StringO object at 0x10e375b58&gt;</div></td></tr><tr><td style="font-weight:bold;vertical-align:top;">cookies</td><td style="vertical-align:top;">:</td><td><div><table><tr><td style="font-weight:bold;vertical-align:top;">session_id_sota</td><td style="vertical-align:top;">:</td><td><div>127.0.0.1-f8ea027b-ef47-4957-818d-d7014ed4ed54<table><tr><td style="font-weight:bold;vertical-align:top;">comment</td><td style="vertical-align:top;">:</td><td><div></div></td></tr><tr><td style="font-weight:bold;vertical-align:top;">domain</td><td style="vertical-align:top;">:</td><td><div></div></td></tr><tr><td style="font-weight:bold;vertical-align:top;">expires</td><td style="vertical-align:top;">:</td><td><div></div></td></tr><tr><td style="font-weight:bold;vertical-align:top;">httponly</td><td style="vertical-align:top;">:</td><td><div></div></td></tr><tr><td style="font-weight:bold;vertical-align:top;">max-age</td><td style="vertical-align:top;">:</td><td><div></div></td></tr><tr><td style="font-weight:bold;vertical-align:top;">path</td><td style="vertical-align:top;">:</td><td><div>/</div></td></tr><tr><td style="font-weight:bold;vertical-align:top;">secure</td><td style="vertical-align:top;">:</td><td><div></div></td></tr><tr><td style="font-weight:bold;vertical-align:top;">version</td><td style="vertical-align:top;">:</td><td><div></div></td></tr></table></div></td></tr></table></div></td></tr><tr><td style="font-weight:bold;vertical-align:top;">delimiters</td><td style="vertical-align:top;">:</td><td><div><table><tr><td><div>{{</div></td></tr><tr><td><div>}}</div></td></tr></table></div></td></tr><tr><td style="font-weight:bold;vertical-align:top;">files</td><td style="vertical-align:top;">:</td><td><div><table></table></div></td></tr><tr><td style="font-weight:bold;vertical-align:top;">flash</td><td style="vertical-align:top;">:</td><td><div></div></td></tr><tr><td style="font-weight:bold;vertical-align:top;">form_label_separator</td><td style="vertical-align:top;">:</td><td><div></div></td></tr><tr><td style="font-weight:bold;vertical-align:top;">formstyle</td><td style="vertical-align:top;">:</td><td><div>bootstrap3_inline</div></td></tr><tr><td style="font-weight:bold;vertical-align:top;">generic_patterns</td><td style="vertical-align:top;">:</td><td><div><table><tr><td><div>*</div></td></tr></table></div></td></tr><tr><td style="font-weight:bold;vertical-align:top;">headers</td><td style="vertical-align:top;">:</td><td><div><table><tr><td style="font-weight:bold;vertical-align:top;">X-Powered-By</td><td style="vertical-align:top;">:</td><td><div>web2py</div></td></tr></table></div></td></tr><tr><td style="font-weight:bold;vertical-align:top;">menu</td><td style="vertical-align:top;">:</td><td><div><table></table></div></td></tr><tr><td style="font-weight:bold;vertical-align:top;">meta</td><td style="vertical-align:top;">:</td><td><div><table></table></div></td></tr><tr><td style="font-weight:bold;vertical-align:top;">models_to_run</td><td style="vertical-align:top;">:</td><td><div><table><tr><td><div>^\\w+\\.py$</div></td></tr><tr><td><div>^default/\\w+\\.py$</div></td></tr><tr><td><div>^default/index/\\w+\\.py$</div></td></tr></table></div></td></tr><tr><td style="font-weight:bold;vertical-align:top;">postprocessing</td><td style="vertical-align:top;">:</td><td><div><table></table></div></td></tr><tr><td style="font-weight:bold;vertical-align:top;">session_client</td><td style="vertical-align:top;">:</td><td><div>127.0.0.1</div></td></tr><tr><td style="font-weight:bold;vertical-align:top;">session_cookie_compression_level</td><td style="vertical-align:top;">:</td><td><div>None</div></td></tr><tr><td style="font-weight:bold;vertical-align:top;">session_cookie_expires</td><td style="vertical-align:top;">:</td><td><div>None</div></td></tr><tr><td style="font-weight:bold;vertical-align:top;">session_data_name</td><td style="vertical-align:top;">:</td><td><div>session_data_sota</div></td></tr><tr><td style="font-weight:bold;vertical-align:top;">session_file</td><td style="vertical-align:top;">:</td><td><div>&lt;open file &#x27;/Users/ecain/Projects/SOTA/web2py/applications/SOTA/sessions/15f/022/127.0.0.1-f8ea027b-ef47-4957-818d-d7014ed4ed54&#x27;, mode &#x27;rb+&#x27; at 0x10e341540&gt;</div></td></tr><tr><td style="font-weight:bold;vertical-align:top;">session_filename</td><td style="vertical-align:top;">:</td><td><div>/Users/ecain/Projects/SOTA/web2py/applications/SOTA/sessions/127.0.0.1-f8ea027b-ef47-4957-818d-d7014ed4ed54</div></td></tr><tr><td style="font-weight:bold;vertical-align:top;">session_hash</td><td style="vertical-align:top;">:</td><td><div>f5e7754b6857e0377624606384edcf7f</div></td></tr><tr><td style="font-weight:bold;vertical-align:top;">session_id</td><td style="vertical-align:top;">:</td><td><div>127.0.0.1-f8ea027b-ef47-4957-818d-d7014ed4ed54</div></td></tr><tr><td style="font-weight:bold;vertical-align:top;">session_id_name</td><td style="vertical-align:top;">:</td><td><div>session_id_sota</div></td></tr><tr><td style="font-weight:bold;vertical-align:top;">session_locked</td><td style="vertical-align:top;">:</td><td><div>True</div></td></tr><tr><td style="font-weight:bold;vertical-align:top;">session_masterapp</td><td style="vertical-align:top;">:</td><td><div>SOTA</div></td></tr><tr><td style="font-weight:bold;vertical-align:top;">session_new</td><td style="vertical-align:top;">:</td><td><div>False</div></td></tr><tr><td style="font-weight:bold;vertical-align:top;">session_storage_type</td><td style="vertical-align:top;">:</td><td><div>file</div></td></tr><tr><td style="font-weight:bold;vertical-align:top;">status</td><td style="vertical-align:top;">:</td><td><div>200</div></td></tr><tr><td style="font-weight:bold;vertical-align:top;">view</td><td style="vertical-align:top;">:</td><td><div>default/index.html</div></td></tr></table></div>'
tRp300
sS'locals'
p301
(dp302
S'handlers'
p303
S'[<pydal.helpers.classes.TimingHandler object>]'
p304
sS'self'
p305
S'<pydal.adapters.sqlite.SQLite object>'
p306
sg48
S'(\'CREATE TABLE "auth_user"(\\n    "id" INTEGER PRIMA...ERENCES "auth_user" ("id") ON DELETE CASCADE  \\n);\',)'
p307
sS'handler'
p308
S'<pydal.helpers.classes.TimingHandler object>'
p309
sS'command'
p310
S'\'CREATE TABLE "auth_user"(\\n    "id" INTEGER PRIMA...ERENCES "auth_user" ("id") ON DELETE CASCADE  \\n);\''
p311
sS'kwargs'
p312
g21
sssS'traceback'
p313
S'Traceback (most recent call last):\n  File "/Users/ecain/Projects/SOTA/web2py/gluon/restricted.py", line 216, in restricted\n    exec(ccode, environment)\n  File "/Users/ecain/Projects/SOTA/web2py/applications/SOTA/models/db.py", line 94, in <module>\n    auth.define_tables(username=True, signature=True)\n  File "/Users/ecain/Projects/SOTA/web2py/gluon/tools.py", line 2409, in define_tables\n    format=\'%(username)s\'))\n  File "/usr/local/lib/python2.7/site-packages/pydal/base.py", line 587, in define_table\n    table = self.lazy_define_table(tablename, *fields, **args)\n  File "/usr/local/lib/python2.7/site-packages/pydal/base.py", line 621, in lazy_define_table\n    polymodel=polymodel)\n  File "/usr/local/lib/python2.7/site-packages/pydal/adapters/base.py", line 778, in create_table\n    return self.migrator.create_table(*args, **kwargs)\n  File "/usr/local/lib/python2.7/site-packages/pydal/migrator.py", line 269, in create_table\n    self.adapter.create_sequence_and_triggers(query, table)\n  File "/usr/local/lib/python2.7/site-packages/pydal/adapters/base.py", line 861, in create_sequence_and_triggers\n    self.execute(query)\n  File "/usr/local/lib/python2.7/site-packages/pydal/adapters/__init__.py", line 67, in wrap\n    return f(*args, **kwargs)\n  File "/usr/local/lib/python2.7/site-packages/pydal/adapters/base.py", line 416, in execute\n    rv = self.cursor.execute(command, *args[1:], **kwargs)\nOperationalError: table "auth_user" already exists\n'
p314
s.