(dp1
S'output'
p2
S'The "end" tag is unmatched, please check if you have a starting "block" tag'
p3
sS'layer'
p4
S'ParserContainer'
p5
sS'code'
p6
S'{{left_sidebar_enabled,right_sidebar_enabled=False,(\'message\' in globals())}}\n{{extend \'layout.html\'}}\n\n{{block header}}\n    <header class="container-fluid background">\n      <div class="jumbotron text-center">\n        {{if response.title:}}\n        <h1>{{=response.title}}\n          <small>{{=response.subtitle or \'\'}}</small></h1>\n        {{pass}}\n      </div>\n    </header>\n{{end}}\n\n{{if \'form\' in globals():}}\n<h2>{{=form}}</h2>\n{{else:}}\n{{pass}}\n<h2>{{=db_contents}}</h2>stap\n\n<!--\n{if \'db_contents\' in globals():}}\n<h2>{{=db_contents}}</h2>\n{{else:}}\n{{pass}}\n\n{{if \'message\' in globals():}}\n<h2>{{=message}}</h2>\n{{elif \'content\' in globals():}}\n{{=content}}\n{{else:}}\n{{=BEAUTIFY(response._vars)}}\n{{pass}}\n-->\n{{end}}\n'
p7
sS'snapshot'
p8
(dp9
S'exception'
p10
(dp11
S'__module__'
p12
S"'ssl'"
p13
sS'__getslice__'
p14
S"<method-wrapper '__getslice__' of SSLError object>"
p15
sS'__str__'
p16
S"<method-wrapper '__str__' of SSLError object>"
p17
sS'__reduce__'
p18
S'<built-in method __reduce__ of SSLError object>'
p19
sS'__dict__'
p20
S'{}'
p21
sS'__sizeof__'
p22
S'<built-in method __sizeof__ of SSLError object>'
p23
sS'__weakref__'
p24
S'None'
p25
sS'message'
p26
S"'The read operation timed out'"
p27
sS'__init__'
p28
S"<method-wrapper '__init__' of SSLError object>"
p29
sS'__setattr__'
p30
S"<method-wrapper '__setattr__' of SSLError object>"
p31
sS'__reduce_ex__'
p32
S'<built-in method __reduce_ex__ of SSLError object>'
p33
sS'__new__'
p34
S'<built-in method __new__ of type object>'
p35
sS'errno'
p36
S'None'
p37
sS'__format__'
p38
S'<built-in method __format__ of SSLError object>'
p39
sS'__class__'
p40
S"<class 'ssl.SSLError'>"
p41
sS'filename'
p42
S'None'
p43
sS'__doc__'
p44
S"'An error occurred in the SSL implementation.'"
p45
sS'__getitem__'
p46
S"<method-wrapper '__getitem__' of SSLError object>"
p47
sS'__setstate__'
p48
S'<built-in method __setstate__ of SSLError object>'
p49
sS'__getattribute__'
p50
S"<method-wrapper '__getattribute__' of SSLError object>"
p51
sS'args'
p52
S"('The read operation timed out',)"
p53
sS'__subclasshook__'
p54
S'<built-in method __subclasshook__ of type object>'
p55
sS'__unicode__'
p56
S'<built-in method __unicode__ of SSLError object>'
p57
sS'strerror'
p58
S'None'
p59
sS'__delattr__'
p60
S"<method-wrapper '__delattr__' of SSLError object>"
p61
sS'__repr__'
p62
S"<method-wrapper '__repr__' of SSLError object>"
p63
sS'__hash__'
p64
S"<method-wrapper '__hash__' of SSLError object>"
p65
ssS'evalue'
p66
S"('The read operation timed out',)"
p67
sS'frames'
p68
(lp69
(dp70
S'file'
p71
S'/Users/ecain/Projects/SOTA/web2py/gluon/rocket.py'
p72
sS'dump'
p73
(dp74
S'self'
p75
S'<WSGIWorker(Thread-12, started daemon 4406194176)>'
p76
sS'conn'
p77
S'<gluon.rocket.Connection object>'
p78
sS'self.run_app'
p79
S'<bound method WSGIWorker.run_app of <WSGIWorker(Thread-12, started daemon 4406194176)>>'
p80
ssS'lnum'
p81
I1320
sS'lines'
p82
(dp83
I1315
S'            # Enter connection serve loop'
p84
sI1316
S'            while True:'
p85
sI1317
S'                if __debug__:'
p86
sI1318
S"                    self.err_log.debug('Serving a request')"
p87
sI1319
S'                try:'
p88
sI1320
S'                    self.run_app(conn)'
p89
sI1321
S'                except:'
p90
sI1322
S'                    exc = sys.exc_info()'
p91
sI1323
S'                    handled = self._handleError(*exc)'
p92
sI1324
S'                    if handled:'
p93
ssS'call'
p94
S'(self=<WSGIWorker(Thread-12, started daemon 4406194176)>)'
p95
sS'func'
p96
S'run'
p97
sa(dp98
g71
S'/Users/ecain/Projects/SOTA/web2py/gluon/rocket.py'
p99
sg73
(dp100
S'self'
p101
S'<WSGIWorker(Thread-12, started daemon 4406194176)>'
p102
sS'self.environ'
p103
S"{'HTTPS': 'on', 'HTTP_ACCEPT': 'text/html,application/xhtml+xml,application/xml;q=0.9,*/*;q=0.8', 'HTTP_ACCEPT_ENCODING': 'gzip, deflate, br', 'HTTP_ACCEPT_LANGUAGE': 'en-US,en;q=0.5', 'HTTP_CACHE_CONTROL': 'max-age=0', 'HTTP_CONNECTION': 'keep-alive', 'HTTP_COOKIE': 'csrftoken=1IDx8BTnyy9FCtyjuOYxlnc3y9TqicAU; sess...ta=127.0.0.1-e73a6233-07ce-4ef3-b8c6-4c0b83a86464', 'HTTP_HOST': '127.0.0.1:8000', 'HTTP_REFERER': 'https://127.0.0.1:8000/SOTA/default/index/new/supplier_db', 'HTTP_UPGRADE_INSECURE_REQUESTS': '1', ...}"
p104
sS'sock_file'
p105
S'<socket._fileobject object>'
p106
sS'environ'
p107
S'undefined'
p108
sS'self.build_environ'
p109
S'<bound method WSGIWorker.build_environ of <WSGIWorker(Thread-12, started daemon 4406194176)>>'
p110
sS'conn'
p111
S'<gluon.rocket.Connection object>'
p112
ssg81
I1813
sg82
(dp113
I1808
S'        else:'
p114
sI1809
S'            sock_file = conn.makefile(BUF_SIZE)'
p115
sI1810
S''
sI1811
S'        try:'
p116
sI1812
S'            # Read the headers and build our WSGI environment'
p117
sI1813
S'            self.environ = environ = self.build_environ(sock_file, conn)'
p118
sI1814
S''
sI1815
S'            # Handle 100 Continue'
p119
sI1816
S"            if environ.get('HTTP_EXPECT', '') == '100-continue':"
p120
sI1817
S"                res = environ['SERVER_PROTOCOL'] + ' 100 Continue\\r\\n\\r\\n'"
p121
ssg94
S'(self=<WSGIWorker(Thread-12, started daemon 4406194176)>, conn=<gluon.rocket.Connection object>)'
p122
sg96
S'run_app'
p123
sa(dp124
g71
S'/Users/ecain/Projects/SOTA/web2py/gluon/rocket.py'
p125
sg73
(dp126
S'sock_file'
p127
S'<socket._fileobject object>'
p128
sS'self.read_request_line'
p129
S'<bound method WSGIWorker.read_request_line of <WSGIWorker(Thread-12, started daemon 4406194176)>>'
p130
sS'self'
p131
S'<WSGIWorker(Thread-12, started daemon 4406194176)>'
p132
sS'request'
p133
g108
ssg81
I1633
sg82
(dp134
I1632
S'        # Grab the request line'
p135
sI1633
S'        request = self.read_request_line(sock_file)'
p136
sI1634
S''
sI1635
S'        # Copy the Base Environment'
p137
sI1636
S'        environ = self.base_environ.copy()'
p138
sI1637
S''
sI1628
S'                                      "wsgiorg.futures": executor.futures})'
p139
sI1629
S''
sI1630
S'    def build_environ(self, sock_file, conn):'
p140
sI1631
S'        """ Build the execution environment. """'
p141
ssg94
S'(self=<WSGIWorker(Thread-12, started daemon 4406194176)>, sock_file=<socket._fileobject object>, conn=<gluon.rocket.Connection object>)'
p142
sg96
S'build_environ'
p143
sa(dp144
g71
S'/Users/ecain/Projects/SOTA/web2py/gluon/rocket.py'
p145
sg73
(dp146
S'sock_file'
p147
S'<socket._fileobject object>'
p148
sS'sock_file.readline'
p149
S'<bound method _fileobject.readline of <socket._fileobject object>>'
p150
sS'd'
g108
ssg81
I1371
sg82
(dp151
I1366
S''
sI1367
S'    def read_request_line(self, sock_file):'
p152
sI1368
S"        self.request_line = ''"
p153
sI1369
S'        try:'
p154
sI1370
S'            # Grab the request line'
p155
sI1371
S'            d = sock_file.readline()'
p156
sI1372
S'            if PY3K:'
p157
sI1373
S"                d = d.decode('ISO-8859-1')"
p158
sI1374
S''
sI1375
S"            if d == '\\r\\n':"
p159
ssg94
S'(self=<WSGIWorker(Thread-12, started daemon 4406194176)>, sock_file=<socket._fileobject object>)'
p160
sg96
S'read_request_line'
p161
sa(dp162
g71
S'/System/Library/Frameworks/Python.framework/Versions/2.7/lib/python2.7/socket.py'
p163
sg73
(dp164
S'self._sock.recv'
p165
g108
sS'self._sock'
p166
S'None'
p167
sS'self'
p168
S'<socket._fileobject object>'
p169
sS'self._rbufsize'
p170
S'8192'
p171
sS'data'
p172
g108
ssg81
I451
sg82
(dp173
I448
S'            self._rbuf = StringIO()  # reset _rbuf.  we consume it via buf.'
p174
sI449
S'            while True:'
p175
sI450
S'                try:'
p176
sI451
S'                    data = self._sock.recv(self._rbufsize)'
p177
sI452
S'                except error, e:'
p178
sI453
S'                    if e.args[0] == EINTR:'
p179
sI454
S'                        continue'
p180
sI455
S'                    raise'
p181
sI446
S''
sI447
S'            buf.seek(0, 2)  # seek end'
p182
ssg94
S'(self=<socket._fileobject object>, size=-1)'
p183
sg96
S'readline'
p184
sa(dp185
g71
S'/System/Library/Frameworks/Python.framework/Versions/2.7/lib/python2.7/ssl.py'
p186
sg73
(dp187
S'self.read'
p188
S'<bound method SSLSocket.read of <ssl.SSLSocket object>>'
p189
sS'self'
p190
S'<ssl.SSLSocket object>'
p191
sS'buflen'
p192
S'8192'
p193
ssg81
I734
sg82
(dp194
I736
S'            return self._sock.recv(buflen, flags)'
p195
sI737
S''
sI738
S'    def recv_into(self, buffer, nbytes=None, flags=0):'
p196
sI729
S'        if self._sslobj:'
p197
sI730
S'            if flags != 0:'
p198
sI731
S'                raise ValueError('
p199
sI732
S'                    "non-zero flags not allowed in calls to recv() on %s" %'
p200
sI733
S'                    self.__class__)'
p201
sI734
S'            return self.read(buflen)'
p202
sI735
S'        else:'
p203
ssg94
S'(self=<ssl.SSLSocket object>, buflen=8192, flags=0)'
p204
sg96
S'recv'
p205
sa(dp206
g71
S'/System/Library/Frameworks/Python.framework/Versions/2.7/lib/python2.7/ssl.py'
p207
sg73
(dp208
S'len'
p209
S'8192'
p210
sS'self'
p211
S'<ssl.SSLSocket object>'
p212
sS'self._sslobj.read'
p213
g108
sS'self._sslobj'
p214
S'None'
p215
sS'v'
g108
ssg81
I621
sg82
(dp216
I616
S'            raise ValueError("Read on closed or unwrapped SSL socket.")'
p217
sI617
S'        try:'
p218
sI618
S'            if buffer is not None:'
p219
sI619
S'                v = self._sslobj.read(len, buffer)'
p220
sI620
S'            else:'
p221
sI621
S'                v = self._sslobj.read(len or 1024)'
p222
sI622
S'            return v'
p223
sI623
S'        except SSLError as x:'
p224
sI624
S'            if x.args[0] == SSL_ERROR_EOF and self.suppress_ragged_eofs:'
p225
sI625
S'                if buffer is not None:'
p226
ssg94
S'(self=<ssl.SSLSocket object>, len=8192, buffer=None)'
p227
sg96
S'read'
p228
sasS'pyver'
p229
S'Python 2.7.10: /usr/bin/python (prefix: /System/Library/Frameworks/Python.framework/Versions/2.7)'
p230
sS'etype'
p231
S"<class 'ssl.SSLError'>"
p232
sS'date'
p233
S'Mon Dec 12 15:58:19 2016'
p234
sS'locals'
p235
(dp236
S'buffer'
p237
S'None'
p238
sS'x'
S"SSLError('The read operation timed out',)"
p239
sS'self'
p240
S'<ssl.SSLSocket object>'
p241
sS'len'
p242
S'8192'
p243
sssS'traceback'
p244
S'Traceback (most recent call last):\n  File "/Users/ecain/Projects/SOTA/web2py/gluon/rocket.py", line 1320, in run\n    self.run_app(conn)\n  File "/Users/ecain/Projects/SOTA/web2py/gluon/rocket.py", line 1813, in run_app\n    self.environ = environ = self.build_environ(sock_file, conn)\n  File "/Users/ecain/Projects/SOTA/web2py/gluon/rocket.py", line 1633, in build_environ\n    request = self.read_request_line(sock_file)\n  File "/Users/ecain/Projects/SOTA/web2py/gluon/rocket.py", line 1371, in read_request_line\n    d = sock_file.readline()\n  File "/System/Library/Frameworks/Python.framework/Versions/2.7/lib/python2.7/socket.py", line 451, in readline\n    data = self._sock.recv(self._rbufsize)\n  File "/System/Library/Frameworks/Python.framework/Versions/2.7/lib/python2.7/ssl.py", line 734, in recv\n    return self.read(buflen)\n  File "/System/Library/Frameworks/Python.framework/Versions/2.7/lib/python2.7/ssl.py", line 621, in read\n    v = self._sslobj.read(len or 1024)\nSSLError: (\'The read operation timed out\',)\n'
p245
s.