(dp1
S'output'
p2
S"<type 'exceptions.AttributeError'> 'Query' object has no attribute '_tablename'"
p3
sS'layer'
p4
S'/Users/ecain/Projects/SOTA/web2py/applications/SOTA/controllers/default.py'
p5
sS'code'
p6
S'<code object <module> at 0x10d0b0330, file "/Users/ecain/Projects/SOTA/web2py/applications/SOTA/controllers/default.py:index", line 10>'
p7
sS'snapshot'
p8
(dp9
sS'traceback'
p10
S'Traceback (most recent call last):\n  File "/Users/ecain/Projects/SOTA/web2py/gluon/restricted.py", line 216, in restricted\n    exec(ccode, environment)\n  File "/Users/ecain/Projects/SOTA/web2py/applications/SOTA/controllers/default.py:index", line 174, in <module>\n  File "/Users/ecain/Projects/SOTA/web2py/gluon/globals.py", line 405, in <lambda>\n    self._caller = lambda f: f()\n  File "/Users/ecain/Projects/SOTA/web2py/gluon/tools.py", line 4321, in f\n    return action(*a, **b)\n  File "/Users/ecain/Projects/SOTA/web2py/applications/SOTA/controllers/default.py:index", line 25, in index\n  File "/Users/ecain/Projects/SOTA/web2py/gluon/tools.py", line 4321, in f\n    return action(*a, **b)\n  File "/Users/ecain/Projects/SOTA/web2py/applications/SOTA/controllers/default.py:index", line 171, in database_contents\n  File "/Users/ecain/Projects/SOTA/web2py/gluon/sqlhtml.py", line 3087, in smartgrid\n    if request.args(len(args)) != table._tablename:\nAttributeError: \'Query\' object has no attribute \'_tablename\'\n'
p11
s.